
habo:     file format elf32-i386


Disassembly of section .init:

080489c4 <_init>:
 80489c4:	55                   	push   %ebp
 80489c5:	89 e5                	mov    %esp,%ebp
 80489c7:	53                   	push   %ebx
 80489c8:	83 ec 04             	sub    $0x4,%esp
 80489cb:	e8 00 00 00 00       	call   80489d0 <_init+0xc>
 80489d0:	5b                   	pop    %ebx
 80489d1:	81 c3 24 76 00 00    	add    $0x7624,%ebx
 80489d7:	8b 93 f8 ff ff ff    	mov    -0x8(%ebx),%edx
 80489dd:	85 d2                	test   %edx,%edx
 80489df:	74 05                	je     80489e6 <_init+0x22>
 80489e1:	e8 5e 00 00 00       	call   8048a44 <__gmon_start__@plt>
 80489e6:	e8 45 03 00 00       	call   8048d30 <frame_dummy>
 80489eb:	e8 80 5d 00 00       	call   804e770 <__do_global_ctors_aux>
 80489f0:	58                   	pop    %eax
 80489f1:	5b                   	pop    %ebx
 80489f2:	c9                   	leave  
 80489f3:	c3                   	ret    

Disassembly of section .plt:

080489f4 <getpid@plt-0x10>:
 80489f4:	ff 35 f8 ff 04 08    	pushl  0x804fff8
 80489fa:	ff 25 fc ff 04 08    	jmp    *0x804fffc
 8048a00:	00 00                	add    %al,(%eax)
	...

08048a04 <getpid@plt>:
 8048a04:	ff 25 00 00 05 08    	jmp    *0x8050000
 8048a0a:	68 00 00 00 00       	push   $0x0
 8048a0f:	e9 e0 ff ff ff       	jmp    80489f4 <_init+0x30>

08048a14 <__cxa_atexit@plt>:
 8048a14:	ff 25 04 00 05 08    	jmp    *0x8050004
 8048a1a:	68 08 00 00 00       	push   $0x8
 8048a1f:	e9 d0 ff ff ff       	jmp    80489f4 <_init+0x30>

08048a24 <nearbyint@plt>:
 8048a24:	ff 25 08 00 05 08    	jmp    *0x8050008
 8048a2a:	68 10 00 00 00       	push   $0x10
 8048a2f:	e9 c0 ff ff ff       	jmp    80489f4 <_init+0x30>

08048a34 <signal@plt>:
 8048a34:	ff 25 0c 00 05 08    	jmp    *0x805000c
 8048a3a:	68 18 00 00 00       	push   $0x18
 8048a3f:	e9 b0 ff ff ff       	jmp    80489f4 <_init+0x30>

08048a44 <__gmon_start__@plt>:
 8048a44:	ff 25 10 00 05 08    	jmp    *0x8050010
 8048a4a:	68 20 00 00 00       	push   $0x20
 8048a4f:	e9 a0 ff ff ff       	jmp    80489f4 <_init+0x30>

08048a54 <realloc@plt>:
 8048a54:	ff 25 14 00 05 08    	jmp    *0x8050014
 8048a5a:	68 28 00 00 00       	push   $0x28
 8048a5f:	e9 90 ff ff ff       	jmp    80489f4 <_init+0x30>

08048a64 <rewind@plt>:
 8048a64:	ff 25 18 00 05 08    	jmp    *0x8050018
 8048a6a:	68 30 00 00 00       	push   $0x30
 8048a6f:	e9 80 ff ff ff       	jmp    80489f4 <_init+0x30>

08048a74 <putchar@plt>:
 8048a74:	ff 25 1c 00 05 08    	jmp    *0x805001c
 8048a7a:	68 38 00 00 00       	push   $0x38
 8048a7f:	e9 70 ff ff ff       	jmp    80489f4 <_init+0x30>

08048a84 <fgets@plt>:
 8048a84:	ff 25 20 00 05 08    	jmp    *0x8050020
 8048a8a:	68 40 00 00 00       	push   $0x40
 8048a8f:	e9 60 ff ff ff       	jmp    80489f4 <_init+0x30>

08048a94 <memset@plt>:
 8048a94:	ff 25 24 00 05 08    	jmp    *0x8050024
 8048a9a:	68 48 00 00 00       	push   $0x48
 8048a9f:	e9 50 ff ff ff       	jmp    80489f4 <_init+0x30>

08048aa4 <SDL_PollEvent@plt>:
 8048aa4:	ff 25 28 00 05 08    	jmp    *0x8050028
 8048aaa:	68 50 00 00 00       	push   $0x50
 8048aaf:	e9 40 ff ff ff       	jmp    80489f4 <_init+0x30>

08048ab4 <__libc_start_main@plt>:
 8048ab4:	ff 25 2c 00 05 08    	jmp    *0x805002c
 8048aba:	68 58 00 00 00       	push   $0x58
 8048abf:	e9 30 ff ff ff       	jmp    80489f4 <_init+0x30>

08048ac4 <floor@plt>:
 8048ac4:	ff 25 30 00 05 08    	jmp    *0x8050030
 8048aca:	68 60 00 00 00       	push   $0x60
 8048acf:	e9 20 ff ff ff       	jmp    80489f4 <_init+0x30>

08048ad4 <modf@plt>:
 8048ad4:	ff 25 34 00 05 08    	jmp    *0x8050034
 8048ada:	68 68 00 00 00       	push   $0x68
 8048adf:	e9 10 ff ff ff       	jmp    80489f4 <_init+0x30>

08048ae4 <SDL_SetVideoMode@plt>:
 8048ae4:	ff 25 38 00 05 08    	jmp    *0x8050038
 8048aea:	68 70 00 00 00       	push   $0x70
 8048aef:	e9 00 ff ff ff       	jmp    80489f4 <_init+0x30>

08048af4 <free@plt>:
 8048af4:	ff 25 3c 00 05 08    	jmp    *0x805003c
 8048afa:	68 78 00 00 00       	push   $0x78
 8048aff:	e9 f0 fe ff ff       	jmp    80489f4 <_init+0x30>

08048b04 <fflush@plt>:
 8048b04:	ff 25 40 00 05 08    	jmp    *0x8050040
 8048b0a:	68 80 00 00 00       	push   $0x80
 8048b0f:	e9 e0 fe ff ff       	jmp    80489f4 <_init+0x30>

08048b14 <sqrt@plt>:
 8048b14:	ff 25 44 00 05 08    	jmp    *0x8050044
 8048b1a:	68 88 00 00 00       	push   $0x88
 8048b1f:	e9 d0 fe ff ff       	jmp    80489f4 <_init+0x30>

08048b24 <SDL_Init@plt>:
 8048b24:	ff 25 48 00 05 08    	jmp    *0x8050048
 8048b2a:	68 90 00 00 00       	push   $0x90
 8048b2f:	e9 c0 fe ff ff       	jmp    80489f4 <_init+0x30>

08048b34 <fclose@plt>:
 8048b34:	ff 25 4c 00 05 08    	jmp    *0x805004c
 8048b3a:	68 98 00 00 00       	push   $0x98
 8048b3f:	e9 b0 fe ff ff       	jmp    80489f4 <_init+0x30>

08048b44 <memcpy@plt>:
 8048b44:	ff 25 50 00 05 08    	jmp    *0x8050050
 8048b4a:	68 a0 00 00 00       	push   $0xa0
 8048b4f:	e9 a0 fe ff ff       	jmp    80489f4 <_init+0x30>

08048b54 <fopen@plt>:
 8048b54:	ff 25 54 00 05 08    	jmp    *0x8050054
 8048b5a:	68 a8 00 00 00       	push   $0xa8
 8048b5f:	e9 90 fe ff ff       	jmp    80489f4 <_init+0x30>

08048b64 <cos@plt>:
 8048b64:	ff 25 58 00 05 08    	jmp    *0x8050058
 8048b6a:	68 b0 00 00 00       	push   $0xb0
 8048b6f:	e9 80 fe ff ff       	jmp    80489f4 <_init+0x30>

08048b74 <printf@plt>:
 8048b74:	ff 25 5c 00 05 08    	jmp    *0x805005c
 8048b7a:	68 b8 00 00 00       	push   $0xb8
 8048b7f:	e9 70 fe ff ff       	jmp    80489f4 <_init+0x30>

08048b84 <raise@plt>:
 8048b84:	ff 25 60 00 05 08    	jmp    *0x8050060
 8048b8a:	68 c0 00 00 00       	push   $0xc0
 8048b8f:	e9 60 fe ff ff       	jmp    80489f4 <_init+0x30>

08048b94 <atoi@plt>:
 8048b94:	ff 25 64 00 05 08    	jmp    *0x8050064
 8048b9a:	68 c8 00 00 00       	push   $0xc8
 8048b9f:	e9 50 fe ff ff       	jmp    80489f4 <_init+0x30>

08048ba4 <clock_gettime@plt>:
 8048ba4:	ff 25 68 00 05 08    	jmp    *0x8050068
 8048baa:	68 d0 00 00 00       	push   $0xd0
 8048baf:	e9 40 fe ff ff       	jmp    80489f4 <_init+0x30>

08048bb4 <atof@plt>:
 8048bb4:	ff 25 6c 00 05 08    	jmp    *0x805006c
 8048bba:	68 d8 00 00 00       	push   $0xd8
 8048bbf:	e9 30 fe ff ff       	jmp    80489f4 <_init+0x30>

08048bc4 <fwrite@plt>:
 8048bc4:	ff 25 70 00 05 08    	jmp    *0x8050070
 8048bca:	68 e0 00 00 00       	push   $0xe0
 8048bcf:	e9 20 fe ff ff       	jmp    80489f4 <_init+0x30>

08048bd4 <fprintf@plt>:
 8048bd4:	ff 25 74 00 05 08    	jmp    *0x8050074
 8048bda:	68 e8 00 00 00       	push   $0xe8
 8048bdf:	e9 10 fe ff ff       	jmp    80489f4 <_init+0x30>

08048be4 <malloc@plt>:
 8048be4:	ff 25 78 00 05 08    	jmp    *0x8050078
 8048bea:	68 f0 00 00 00       	push   $0xf0
 8048bef:	e9 00 fe ff ff       	jmp    80489f4 <_init+0x30>

08048bf4 <__stack_chk_fail@plt>:
 8048bf4:	ff 25 7c 00 05 08    	jmp    *0x805007c
 8048bfa:	68 f8 00 00 00       	push   $0xf8
 8048bff:	e9 f0 fd ff ff       	jmp    80489f4 <_init+0x30>

08048c04 <fputc@plt>:
 8048c04:	ff 25 80 00 05 08    	jmp    *0x8050080
 8048c0a:	68 00 01 00 00       	push   $0x100
 8048c0f:	e9 e0 fd ff ff       	jmp    80489f4 <_init+0x30>

08048c14 <SDL_UpdateRect@plt>:
 8048c14:	ff 25 84 00 05 08    	jmp    *0x8050084
 8048c1a:	68 08 01 00 00       	push   $0x108
 8048c1f:	e9 d0 fd ff ff       	jmp    80489f4 <_init+0x30>

08048c24 <puts@plt>:
 8048c24:	ff 25 88 00 05 08    	jmp    *0x8050088
 8048c2a:	68 10 01 00 00       	push   $0x110
 8048c2f:	e9 c0 fd ff ff       	jmp    80489f4 <_init+0x30>

08048c34 <SDL_Quit@plt>:
 8048c34:	ff 25 8c 00 05 08    	jmp    *0x805008c
 8048c3a:	68 18 01 00 00       	push   $0x118
 8048c3f:	e9 b0 fd ff ff       	jmp    80489f4 <_init+0x30>

08048c44 <strncmp@plt>:
 8048c44:	ff 25 90 00 05 08    	jmp    *0x8050090
 8048c4a:	68 20 01 00 00       	push   $0x120
 8048c4f:	e9 a0 fd ff ff       	jmp    80489f4 <_init+0x30>

08048c54 <tan@plt>:
 8048c54:	ff 25 94 00 05 08    	jmp    *0x8050094
 8048c5a:	68 28 01 00 00       	push   $0x128
 8048c5f:	e9 90 fd ff ff       	jmp    80489f4 <_init+0x30>

08048c64 <SDL_GetError@plt>:
 8048c64:	ff 25 98 00 05 08    	jmp    *0x8050098
 8048c6a:	68 30 01 00 00       	push   $0x130
 8048c6f:	e9 80 fd ff ff       	jmp    80489f4 <_init+0x30>

08048c74 <sin@plt>:
 8048c74:	ff 25 9c 00 05 08    	jmp    *0x805009c
 8048c7a:	68 38 01 00 00       	push   $0x138
 8048c7f:	e9 70 fd ff ff       	jmp    80489f4 <_init+0x30>

08048c84 <exit@plt>:
 8048c84:	ff 25 a0 00 05 08    	jmp    *0x80500a0
 8048c8a:	68 40 01 00 00       	push   $0x140
 8048c8f:	e9 60 fd ff ff       	jmp    80489f4 <_init+0x30>

Disassembly of section .text:

08048ca0 <_start>:
 8048ca0:	31 ed                	xor    %ebp,%ebp
 8048ca2:	5e                   	pop    %esi
 8048ca3:	89 e1                	mov    %esp,%ecx
 8048ca5:	83 e4 f0             	and    $0xfffffff0,%esp
 8048ca8:	50                   	push   %eax
 8048ca9:	54                   	push   %esp
 8048caa:	52                   	push   %edx
 8048cab:	68 c0 e6 04 08       	push   $0x804e6c0
 8048cb0:	68 d0 e6 04 08       	push   $0x804e6d0
 8048cb5:	51                   	push   %ecx
 8048cb6:	56                   	push   %esi
 8048cb7:	68 54 8d 04 08       	push   $0x8048d54
 8048cbc:	e8 f3 fd ff ff       	call   8048ab4 <__libc_start_main@plt>
 8048cc1:	f4                   	hlt    
 8048cc2:	90                   	nop
 8048cc3:	90                   	nop
 8048cc4:	90                   	nop
 8048cc5:	90                   	nop
 8048cc6:	90                   	nop
 8048cc7:	90                   	nop
 8048cc8:	90                   	nop
 8048cc9:	90                   	nop
 8048cca:	90                   	nop
 8048ccb:	90                   	nop
 8048ccc:	90                   	nop
 8048ccd:	90                   	nop
 8048cce:	90                   	nop
 8048ccf:	90                   	nop

08048cd0 <__do_global_dtors_aux>:
 8048cd0:	55                   	push   %ebp
 8048cd1:	89 e5                	mov    %esp,%ebp
 8048cd3:	53                   	push   %ebx
 8048cd4:	83 ec 04             	sub    $0x4,%esp
 8048cd7:	80 3d e4 00 05 08 00 	cmpb   $0x0,0x80500e4
 8048cde:	75 3f                	jne    8048d1f <__do_global_dtors_aux+0x4f>
 8048ce0:	a1 e8 00 05 08       	mov    0x80500e8,%eax
 8048ce5:	bb fc fe 04 08       	mov    $0x804fefc,%ebx
 8048cea:	81 eb f8 fe 04 08    	sub    $0x804fef8,%ebx
 8048cf0:	c1 fb 02             	sar    $0x2,%ebx
 8048cf3:	83 eb 01             	sub    $0x1,%ebx
 8048cf6:	39 d8                	cmp    %ebx,%eax
 8048cf8:	73 1e                	jae    8048d18 <__do_global_dtors_aux+0x48>
 8048cfa:	8d b6 00 00 00 00    	lea    0x0(%esi),%esi
 8048d00:	83 c0 01             	add    $0x1,%eax
 8048d03:	a3 e8 00 05 08       	mov    %eax,0x80500e8
 8048d08:	ff 14 85 f8 fe 04 08 	call   *0x804fef8(,%eax,4)
 8048d0f:	a1 e8 00 05 08       	mov    0x80500e8,%eax
 8048d14:	39 d8                	cmp    %ebx,%eax
 8048d16:	72 e8                	jb     8048d00 <__do_global_dtors_aux+0x30>
 8048d18:	c6 05 e4 00 05 08 01 	movb   $0x1,0x80500e4
 8048d1f:	83 c4 04             	add    $0x4,%esp
 8048d22:	5b                   	pop    %ebx
 8048d23:	5d                   	pop    %ebp
 8048d24:	c3                   	ret    
 8048d25:	8d 74 26 00          	lea    0x0(%esi,%eiz,1),%esi
 8048d29:	8d bc 27 00 00 00 00 	lea    0x0(%edi,%eiz,1),%edi

08048d30 <frame_dummy>:
 8048d30:	55                   	push   %ebp
 8048d31:	89 e5                	mov    %esp,%ebp
 8048d33:	83 ec 18             	sub    $0x18,%esp
 8048d36:	a1 00 ff 04 08       	mov    0x804ff00,%eax
 8048d3b:	85 c0                	test   %eax,%eax
 8048d3d:	74 12                	je     8048d51 <frame_dummy+0x21>
 8048d3f:	b8 00 00 00 00       	mov    $0x0,%eax
 8048d44:	85 c0                	test   %eax,%eax
 8048d46:	74 09                	je     8048d51 <frame_dummy+0x21>
 8048d48:	c7 04 24 00 ff 04 08 	movl   $0x804ff00,(%esp)
 8048d4f:	ff d0                	call   *%eax
 8048d51:	c9                   	leave  
 8048d52:	c3                   	ret    
 8048d53:	90                   	nop

08048d54 <main>:
 8048d54:	55                   	push   %ebp
 8048d55:	89 e5                	mov    %esp,%ebp
 8048d57:	83 e4 f0             	and    $0xfffffff0,%esp
 8048d5a:	83 ec 30             	sub    $0x30,%esp
 8048d5d:	e8 56 01 00 00       	call   8048eb8 <globals_init>
 8048d62:	e8 de 00 00 00       	call   8048e45 <print_welcome>
 8048d67:	e8 f0 2b 00 00       	call   804b95c <signals_set_handlers>
 8048d6c:	e8 cf 01 00 00       	call   8048f40 <screen_init>
 8048d71:	e8 5e 37 00 00       	call   804c4d4 <animation_init>
 8048d76:	e8 7b 3e 00 00       	call   804cbf6 <obj_kinematics_new>
 8048d7b:	c7 44 24 08 20 00 00 	movl   $0x20,0x8(%esp)
 8048d82:	00 
 8048d83:	c7 44 24 04 00 00 00 	movl   $0x0,0x4(%esp)
 8048d8a:	00 
 8048d8b:	89 04 24             	mov    %eax,(%esp)
 8048d8e:	e8 61 3b 00 00       	call   804c8f4 <scene_add_tform>
 8048d93:	89 44 24 2c          	mov    %eax,0x2c(%esp)
 8048d97:	e8 5a 3e 00 00       	call   804cbf6 <obj_kinematics_new>
 8048d9c:	89 44 24 28          	mov    %eax,0x28(%esp)
 8048da0:	c7 44 24 08 01 00 00 	movl   $0x1,0x8(%esp)
 8048da7:	00 
 8048da8:	8b 44 24 2c          	mov    0x2c(%esp),%eax
 8048dac:	89 44 24 04          	mov    %eax,0x4(%esp)
 8048db0:	8b 44 24 28          	mov    0x28(%esp),%eax
 8048db4:	89 04 24             	mov    %eax,(%esp)
 8048db7:	e8 38 3b 00 00       	call   804c8f4 <scene_add_tform>
 8048dbc:	89 44 24 24          	mov    %eax,0x24(%esp)
 8048dc0:	c7 44 24 0c 00 00 00 	movl   $0x0,0xc(%esp)
 8048dc7:	00 
 8048dc8:	c7 44 24 08 00 00 00 	movl   $0x0,0x8(%esp)
 8048dcf:	00 
 8048dd0:	c7 44 24 04 00 00 00 	movl   $0x0,0x4(%esp)
 8048dd7:	00 
 8048dd8:	c7 04 24 01 00 00 00 	movl   $0x1,(%esp)
 8048ddf:	e8 ac 3c 00 00       	call   804ca90 <object_new>
 8048de4:	c7 44 24 08 00 00 00 	movl   $0x0,0x8(%esp)
 8048deb:	00 
 8048dec:	8b 54 24 24          	mov    0x24(%esp),%edx
 8048df0:	89 54 24 04          	mov    %edx,0x4(%esp)
 8048df4:	89 04 24             	mov    %eax,(%esp)
 8048df7:	e8 37 3b 00 00       	call   804c933 <scene_add_obj>
 8048dfc:	89 44 24 20          	mov    %eax,0x20(%esp)
 8048e00:	8b 44 24 28          	mov    0x28(%esp),%eax
 8048e04:	dd 05 60 e8 04 08    	fldl   0x804e860
 8048e0a:	dd 58 18             	fstpl  0x18(%eax)
 8048e0d:	8b 44 24 20          	mov    0x20(%esp),%eax
 8048e11:	8b 40 18             	mov    0x18(%eax),%eax
 8048e14:	8b 40 08             	mov    0x8(%eax),%eax
 8048e17:	89 44 24 1c          	mov    %eax,0x1c(%esp)
 8048e1b:	8b 44 24 1c          	mov    0x1c(%esp),%eax
 8048e1f:	d9 e8                	fld1   
 8048e21:	dd 18                	fstpl  (%eax)
 8048e23:	8b 44 24 2c          	mov    0x2c(%esp),%eax
 8048e27:	89 04 24             	mov    %eax,(%esp)
 8048e2a:	e8 cd 30 00 00       	call   804befc <world_init>
 8048e2f:	8b 44 24 20          	mov    0x20(%esp),%eax
 8048e33:	89 44 24 04          	mov    %eax,0x4(%esp)
 8048e37:	8b 44 24 2c          	mov    0x2c(%esp),%eax
 8048e3b:	89 04 24             	mov    %eax,(%esp)
 8048e3e:	e8 30 02 00 00       	call   8049073 <screen_main>
 8048e43:	eb ea                	jmp    8048e2f <main+0xdb>

08048e45 <print_welcome>:
 8048e45:	55                   	push   %ebp
 8048e46:	89 e5                	mov    %esp,%ebp
 8048e48:	83 ec 38             	sub    $0x38,%esp
 8048e4b:	a1 38 06 05 08       	mov    0x8050638,%eax
 8048e50:	85 c0                	test   %eax,%eax
 8048e52:	75 12                	jne    8048e66 <print_welcome+0x21>
 8048e54:	a1 34 06 05 08       	mov    0x8050634,%eax
 8048e59:	85 c0                	test   %eax,%eax
 8048e5b:	74 59                	je     8048eb6 <print_welcome+0x71>
 8048e5d:	a1 3c 06 05 08       	mov    0x805063c,%eax
 8048e62:	85 c0                	test   %eax,%eax
 8048e64:	74 50                	je     8048eb6 <print_welcome+0x71>
 8048e66:	e8 99 fb ff ff       	call   8048a04 <getpid@plt>
 8048e6b:	b9 c0 e7 04 08       	mov    $0x804e7c0,%ecx
 8048e70:	8b 15 c0 00 05 08    	mov    0x80500c0,%edx
 8048e76:	c7 44 24 20 2b e8 04 	movl   $0x804e82b,0x20(%esp)
 8048e7d:	08 
 8048e7e:	c7 44 24 1c 2e e8 04 	movl   $0x804e82e,0x1c(%esp)
 8048e85:	08 
 8048e86:	89 44 24 18          	mov    %eax,0x18(%esp)
 8048e8a:	c7 44 24 14 31 e8 04 	movl   $0x804e831,0x14(%esp)
 8048e91:	08 
 8048e92:	c7 44 24 10 3a e8 04 	movl   $0x804e83a,0x10(%esp)
 8048e99:	08 
 8048e9a:	c7 44 24 0c 46 e8 04 	movl   $0x804e846,0xc(%esp)
 8048ea1:	08 
 8048ea2:	c7 44 24 08 52 e8 04 	movl   $0x804e852,0x8(%esp)
 8048ea9:	08 
 8048eaa:	89 4c 24 04          	mov    %ecx,0x4(%esp)
 8048eae:	89 14 24             	mov    %edx,(%esp)
 8048eb1:	e8 1e fd ff ff       	call   8048bd4 <fprintf@plt>
 8048eb6:	c9                   	leave  
 8048eb7:	c3                   	ret    

08048eb8 <globals_init>:
 8048eb8:	55                   	push   %ebp
 8048eb9:	89 e5                	mov    %esp,%ebp
 8048ebb:	c7 05 70 06 05 08 00 	movl   $0x400,0x8050670
 8048ec2:	04 00 00 
 8048ec5:	c7 05 5c 06 05 08 00 	movl   $0x300,0x805065c
 8048ecc:	03 00 00 
 8048ecf:	c7 05 2c 06 05 08 1e 	movl   $0x1e,0x805062c
 8048ed6:	00 00 00 
 8048ed9:	c7 05 6c 06 05 08 01 	movl   $0x1,0x805066c
 8048ee0:	00 00 00 
 8048ee3:	c7 05 50 06 05 08 01 	movl   $0x1,0x8050650
 8048eea:	00 00 00 
 8048eed:	c7 05 68 06 05 08 01 	movl   $0x1,0x8050668
 8048ef4:	00 00 00 
 8048ef7:	c7 05 34 06 05 08 01 	movl   $0x1,0x8050634
 8048efe:	00 00 00 
 8048f01:	c7 05 38 06 05 08 00 	movl   $0x0,0x8050638
 8048f08:	00 00 00 
 8048f0b:	c7 05 3c 06 05 08 01 	movl   $0x1,0x805063c
 8048f12:	00 00 00 
 8048f15:	c7 05 40 06 05 08 01 	movl   $0x1,0x8050640
 8048f1c:	00 00 00 
 8048f1f:	c7 05 44 06 05 08 00 	movl   $0x0,0x8050644
 8048f26:	00 00 00 
 8048f29:	c7 05 48 06 05 08 01 	movl   $0x1,0x8050648
 8048f30:	00 00 00 
 8048f33:	c7 05 4c 06 05 08 00 	movl   $0x0,0x805064c
 8048f3a:	00 00 00 
 8048f3d:	5d                   	pop    %ebp
 8048f3e:	c3                   	ret    
 8048f3f:	90                   	nop

08048f40 <screen_init>:
 8048f40:	55                   	push   %ebp
 8048f41:	89 e5                	mov    %esp,%ebp
 8048f43:	56                   	push   %esi
 8048f44:	53                   	push   %ebx
 8048f45:	83 ec 30             	sub    $0x30,%esp
 8048f48:	c7 04 24 21 00 00 00 	movl   $0x21,(%esp)
 8048f4f:	e8 d0 fb ff ff       	call   8048b24 <SDL_Init@plt>
 8048f54:	85 c0                	test   %eax,%eax
 8048f56:	79 4c                	jns    8048fa4 <screen_init+0x64>
 8048f58:	e8 07 fd ff ff       	call   8048c64 <SDL_GetError@plt>
 8048f5d:	b9 68 e8 04 08       	mov    $0x804e868,%ecx
 8048f62:	8b 15 c0 00 05 08    	mov    0x80500c0,%edx
 8048f68:	89 44 24 18          	mov    %eax,0x18(%esp)
 8048f6c:	c7 44 24 14 15 00 00 	movl   $0x15,0x14(%esp)
 8048f73:	00 
 8048f74:	c7 44 24 10 ca e9 04 	movl   $0x804e9ca,0x10(%esp)
 8048f7b:	08 
 8048f7c:	c7 44 24 0c 92 e8 04 	movl   $0x804e892,0xc(%esp)
 8048f83:	08 
 8048f84:	c7 44 24 08 9f e8 04 	movl   $0x804e89f,0x8(%esp)
 8048f8b:	08 
 8048f8c:	89 4c 24 04          	mov    %ecx,0x4(%esp)
 8048f90:	89 14 24             	mov    %edx,(%esp)
 8048f93:	e8 3c fc ff ff       	call   8048bd4 <fprintf@plt>
 8048f98:	c7 04 24 01 00 00 00 	movl   $0x1,(%esp)
 8048f9f:	e8 e0 fc ff ff       	call   8048c84 <exit@plt>
 8048fa4:	8b 15 5c 06 05 08    	mov    0x805065c,%edx
 8048faa:	a1 70 06 05 08       	mov    0x8050670,%eax
 8048faf:	c7 44 24 0c 00 00 00 	movl   $0x0,0xc(%esp)
 8048fb6:	00 
 8048fb7:	c7 44 24 08 20 00 00 	movl   $0x20,0x8(%esp)
 8048fbe:	00 
 8048fbf:	89 54 24 04          	mov    %edx,0x4(%esp)
 8048fc3:	89 04 24             	mov    %eax,(%esp)
 8048fc6:	e8 19 fb ff ff       	call   8048ae4 <SDL_SetVideoMode@plt>
 8048fcb:	a3 7c 06 05 08       	mov    %eax,0x805067c
 8048fd0:	a1 7c 06 05 08       	mov    0x805067c,%eax
 8048fd5:	85 c0                	test   %eax,%eax
 8048fd7:	75 60                	jne    8049039 <screen_init+0xf9>
 8048fd9:	e8 86 fc ff ff       	call   8048c64 <SDL_GetError@plt>
 8048fde:	8b 35 5c 06 05 08    	mov    0x805065c,%esi
 8048fe4:	8b 1d 70 06 05 08    	mov    0x8050670,%ebx
 8048fea:	b9 a8 e8 04 08       	mov    $0x804e8a8,%ecx
 8048fef:	8b 15 c0 00 05 08    	mov    0x80500c0,%edx
 8048ff5:	89 44 24 20          	mov    %eax,0x20(%esp)
 8048ff9:	89 74 24 1c          	mov    %esi,0x1c(%esp)
 8048ffd:	89 5c 24 18          	mov    %ebx,0x18(%esp)
 8049001:	c7 44 24 14 1a 00 00 	movl   $0x1a,0x14(%esp)
 8049008:	00 
 8049009:	c7 44 24 10 ca e9 04 	movl   $0x804e9ca,0x10(%esp)
 8049010:	08 
 8049011:	c7 44 24 0c 92 e8 04 	movl   $0x804e892,0xc(%esp)
 8049018:	08 
 8049019:	c7 44 24 08 9f e8 04 	movl   $0x804e89f,0x8(%esp)
 8049020:	08 
 8049021:	89 4c 24 04          	mov    %ecx,0x4(%esp)
 8049025:	89 14 24             	mov    %edx,(%esp)
 8049028:	e8 a7 fb ff ff       	call   8048bd4 <fprintf@plt>
 804902d:	c7 04 24 01 00 00 00 	movl   $0x1,(%esp)
 8049034:	e8 4b fc ff ff       	call   8048c84 <exit@plt>
 8049039:	a1 7c 06 05 08       	mov    0x805067c,%eax
 804903e:	8b 40 14             	mov    0x14(%eax),%eax
 8049041:	a3 74 06 05 08       	mov    %eax,0x8050674
 8049046:	a1 7c 06 05 08       	mov    0x805067c,%eax
 804904b:	0f b7 40 10          	movzwl 0x10(%eax),%eax
 804904f:	66 c1 e8 02          	shr    $0x2,%ax
 8049053:	0f b7 c0             	movzwl %ax,%eax
 8049056:	a3 30 06 05 08       	mov    %eax,0x8050630
 804905b:	e8 85 41 00 00       	call   804d1e5 <stack_init>
 8049060:	c7 04 24 34 8c 04 08 	movl   $0x8048c34,(%esp)
 8049067:	e8 c4 56 00 00       	call   804e730 <atexit>
 804906c:	83 c4 30             	add    $0x30,%esp
 804906f:	5b                   	pop    %ebx
 8049070:	5e                   	pop    %esi
 8049071:	5d                   	pop    %ebp
 8049072:	c3                   	ret    

08049073 <screen_main>:
 8049073:	55                   	push   %ebp
 8049074:	89 e5                	mov    %esp,%ebp
 8049076:	53                   	push   %ebx
 8049077:	83 ec 24             	sub    $0x24,%esp
 804907a:	c7 04 24 80 06 05 08 	movl   $0x8050680,(%esp)
 8049081:	e8 1e fa ff ff       	call   8048aa4 <SDL_PollEvent@plt>
 8049086:	85 c0                	test   %eax,%eax
 8049088:	0f 84 6d 04 00 00    	je     80494fb <screen_main+0x488>
 804908e:	0f b6 05 80 06 05 08 	movzbl 0x8050680,%eax
 8049095:	0f b6 c0             	movzbl %al,%eax
 8049098:	83 f8 0c             	cmp    $0xc,%eax
 804909b:	0f 87 f5 03 00 00    	ja     8049496 <screen_main+0x423>
 80490a1:	8b 04 85 60 e9 04 08 	mov    0x804e960(,%eax,4),%eax
 80490a8:	ff e0                	jmp    *%eax
 80490aa:	a1 38 06 05 08       	mov    0x8050638,%eax
 80490af:	85 c0                	test   %eax,%eax
 80490b1:	75 12                	jne    80490c5 <screen_main+0x52>
 80490b3:	a1 34 06 05 08       	mov    0x8050634,%eax
 80490b8:	85 c0                	test   %eax,%eax
 80490ba:	74 3f                	je     80490fb <screen_main+0x88>
 80490bc:	a1 44 06 05 08       	mov    0x8050644,%eax
 80490c1:	85 c0                	test   %eax,%eax
 80490c3:	74 36                	je     80490fb <screen_main+0x88>
 80490c5:	ba e3 e8 04 08       	mov    $0x804e8e3,%edx
 80490ca:	a1 c0 00 05 08       	mov    0x80500c0,%eax
 80490cf:	c7 44 24 14 2c 00 00 	movl   $0x2c,0x14(%esp)
 80490d6:	00 
 80490d7:	c7 44 24 10 be e9 04 	movl   $0x804e9be,0x10(%esp)
 80490de:	08 
 80490df:	c7 44 24 0c 92 e8 04 	movl   $0x804e892,0xc(%esp)
 80490e6:	08 
 80490e7:	c7 44 24 08 9f e8 04 	movl   $0x804e89f,0x8(%esp)
 80490ee:	08 
 80490ef:	89 54 24 04          	mov    %edx,0x4(%esp)
 80490f3:	89 04 24             	mov    %eax,(%esp)
 80490f6:	e8 d9 fa ff ff       	call   8048bd4 <fprintf@plt>
 80490fb:	0f b6 05 80 06 05 08 	movzbl 0x8050680,%eax
 8049102:	0f b6 d8             	movzbl %al,%ebx
 8049105:	0f b6 05 82 06 05 08 	movzbl 0x8050682,%eax
 804910c:	0f b6 c8             	movzbl %al,%ecx
 804910f:	0f b7 05 86 06 05 08 	movzwl 0x8050686,%eax
 8049116:	0f b7 d0             	movzwl %ax,%edx
 8049119:	0f b7 05 84 06 05 08 	movzwl 0x8050684,%eax
 8049120:	0f b7 c0             	movzwl %ax,%eax
 8049123:	89 5c 24 0c          	mov    %ebx,0xc(%esp)
 8049127:	89 4c 24 08          	mov    %ecx,0x8(%esp)
 804912b:	89 54 24 04          	mov    %edx,0x4(%esp)
 804912f:	89 04 24             	mov    %eax,(%esp)
 8049132:	e8 f1 03 00 00       	call   8049528 <click>
 8049137:	e9 bf 03 00 00       	jmp    80494fb <screen_main+0x488>
 804913c:	a1 38 06 05 08       	mov    0x8050638,%eax
 8049141:	85 c0                	test   %eax,%eax
 8049143:	75 12                	jne    8049157 <screen_main+0xe4>
 8049145:	a1 34 06 05 08       	mov    0x8050634,%eax
 804914a:	85 c0                	test   %eax,%eax
 804914c:	74 49                	je     8049197 <screen_main+0x124>
 804914e:	a1 44 06 05 08       	mov    0x8050644,%eax
 8049153:	85 c0                	test   %eax,%eax
 8049155:	74 40                	je     8049197 <screen_main+0x124>
 8049157:	8b 0d 88 06 05 08    	mov    0x8050688,%ecx
 804915d:	ba fa e8 04 08       	mov    $0x804e8fa,%edx
 8049162:	a1 c0 00 05 08       	mov    0x80500c0,%eax
 8049167:	89 4c 24 18          	mov    %ecx,0x18(%esp)
 804916b:	c7 44 24 14 34 00 00 	movl   $0x34,0x14(%esp)
 8049172:	00 
 8049173:	c7 44 24 10 be e9 04 	movl   $0x804e9be,0x10(%esp)
 804917a:	08 
 804917b:	c7 44 24 0c 92 e8 04 	movl   $0x804e892,0xc(%esp)
 8049182:	08 
 8049183:	c7 44 24 08 9f e8 04 	movl   $0x804e89f,0x8(%esp)
 804918a:	08 
 804918b:	89 54 24 04          	mov    %edx,0x4(%esp)
 804918f:	89 04 24             	mov    %eax,(%esp)
 8049192:	e8 3d fa ff ff       	call   8048bd4 <fprintf@plt>
 8049197:	a1 88 06 05 08       	mov    0x8050688,%eax
 804919c:	c7 04 85 20 01 05 08 	movl   $0x1,0x8050120(,%eax,4)
 80491a3:	01 00 00 00 
 80491a7:	a1 88 06 05 08       	mov    0x8050688,%eax
 80491ac:	83 f8 73             	cmp    $0x73,%eax
 80491af:	0f 84 41 01 00 00    	je     80492f6 <screen_main+0x283>
 80491b5:	83 f8 73             	cmp    $0x73,%eax
 80491b8:	77 38                	ja     80491f2 <screen_main+0x17f>
 80491ba:	83 f8 64             	cmp    $0x64,%eax
 80491bd:	0f 84 47 01 00 00    	je     804930a <screen_main+0x297>
 80491c3:	83 f8 64             	cmp    $0x64,%eax
 80491c6:	77 13                	ja     80491db <screen_main+0x168>
 80491c8:	83 f8 20             	cmp    $0x20,%eax
 80491cb:	74 66                	je     8049233 <screen_main+0x1c0>
 80491cd:	83 f8 61             	cmp    $0x61,%eax
 80491d0:	0f 84 48 01 00 00    	je     804931e <screen_main+0x2ab>
 80491d6:	e9 20 03 00 00       	jmp    80494fb <screen_main+0x488>
 80491db:	83 f8 65             	cmp    $0x65,%eax
 80491de:	0f 84 d6 00 00 00    	je     80492ba <screen_main+0x247>
 80491e4:	83 f8 71             	cmp    $0x71,%eax
 80491e7:	0f 84 e1 00 00 00    	je     80492ce <screen_main+0x25b>
 80491ed:	e9 09 03 00 00       	jmp    80494fb <screen_main+0x488>
 80491f2:	3d 12 01 00 00       	cmp    $0x112,%eax
 80491f7:	0f 84 a9 00 00 00    	je     80492a6 <screen_main+0x233>
 80491fd:	3d 12 01 00 00       	cmp    $0x112,%eax
 8049202:	77 15                	ja     8049219 <screen_main+0x1a6>
 8049204:	83 f8 77             	cmp    $0x77,%eax
 8049207:	0f 84 d5 00 00 00    	je     80492e2 <screen_main+0x26f>
 804920d:	3d 11 01 00 00       	cmp    $0x111,%eax
 8049212:	74 7b                	je     804928f <screen_main+0x21c>
 8049214:	e9 e2 02 00 00       	jmp    80494fb <screen_main+0x488>
 8049219:	3d 14 01 00 00       	cmp    $0x114,%eax
 804921e:	74 58                	je     8049278 <screen_main+0x205>
 8049220:	3d 14 01 00 00       	cmp    $0x114,%eax
 8049225:	72 3a                	jb     8049261 <screen_main+0x1ee>
 8049227:	3d 30 01 00 00       	cmp    $0x130,%eax
 804922c:	74 1c                	je     804924a <screen_main+0x1d7>
 804922e:	e9 c8 02 00 00       	jmp    80494fb <screen_main+0x488>
 8049233:	8b 45 0c             	mov    0xc(%ebp),%eax
 8049236:	8b 40 04             	mov    0x4(%eax),%eax
 8049239:	8b 40 18             	mov    0x18(%eax),%eax
 804923c:	dd 05 d8 e9 04 08    	fldl   0x804e9d8
 8049242:	dd 58 30             	fstpl  0x30(%eax)
 8049245:	e9 eb 00 00 00       	jmp    8049335 <screen_main+0x2c2>
 804924a:	8b 45 0c             	mov    0xc(%ebp),%eax
 804924d:	8b 40 04             	mov    0x4(%eax),%eax
 8049250:	8b 40 18             	mov    0x18(%eax),%eax
 8049253:	dd 05 e0 e9 04 08    	fldl   0x804e9e0
 8049259:	dd 58 30             	fstpl  0x30(%eax)
 804925c:	e9 d4 00 00 00       	jmp    8049335 <screen_main+0x2c2>
 8049261:	8b 45 0c             	mov    0xc(%ebp),%eax
 8049264:	8b 40 04             	mov    0x4(%eax),%eax
 8049267:	8b 40 18             	mov    0x18(%eax),%eax
 804926a:	dd 05 d8 e9 04 08    	fldl   0x804e9d8
 8049270:	dd 58 38             	fstpl  0x38(%eax)
 8049273:	e9 bd 00 00 00       	jmp    8049335 <screen_main+0x2c2>
 8049278:	8b 45 0c             	mov    0xc(%ebp),%eax
 804927b:	8b 40 04             	mov    0x4(%eax),%eax
 804927e:	8b 40 18             	mov    0x18(%eax),%eax
 8049281:	dd 05 e0 e9 04 08    	fldl   0x804e9e0
 8049287:	dd 58 38             	fstpl  0x38(%eax)
 804928a:	e9 a6 00 00 00       	jmp    8049335 <screen_main+0x2c2>
 804928f:	8b 45 0c             	mov    0xc(%ebp),%eax
 8049292:	8b 40 04             	mov    0x4(%eax),%eax
 8049295:	8b 40 18             	mov    0x18(%eax),%eax
 8049298:	dd 05 d8 e9 04 08    	fldl   0x804e9d8
 804929e:	dd 58 40             	fstpl  0x40(%eax)
 80492a1:	e9 8f 00 00 00       	jmp    8049335 <screen_main+0x2c2>
 80492a6:	8b 45 0c             	mov    0xc(%ebp),%eax
 80492a9:	8b 40 04             	mov    0x4(%eax),%eax
 80492ac:	8b 40 18             	mov    0x18(%eax),%eax
 80492af:	dd 05 e0 e9 04 08    	fldl   0x804e9e0
 80492b5:	dd 58 40             	fstpl  0x40(%eax)
 80492b8:	eb 7b                	jmp    8049335 <screen_main+0x2c2>
 80492ba:	8b 45 0c             	mov    0xc(%ebp),%eax
 80492bd:	8b 40 04             	mov    0x4(%eax),%eax
 80492c0:	8b 40 18             	mov    0x18(%eax),%eax
 80492c3:	dd 05 e8 e9 04 08    	fldl   0x804e9e8
 80492c9:	dd 58 60             	fstpl  0x60(%eax)
 80492cc:	eb 67                	jmp    8049335 <screen_main+0x2c2>
 80492ce:	8b 45 0c             	mov    0xc(%ebp),%eax
 80492d1:	8b 40 04             	mov    0x4(%eax),%eax
 80492d4:	8b 40 18             	mov    0x18(%eax),%eax
 80492d7:	dd 05 f0 e9 04 08    	fldl   0x804e9f0
 80492dd:	dd 58 60             	fstpl  0x60(%eax)
 80492e0:	eb 53                	jmp    8049335 <screen_main+0x2c2>
 80492e2:	8b 45 0c             	mov    0xc(%ebp),%eax
 80492e5:	8b 40 04             	mov    0x4(%eax),%eax
 80492e8:	8b 40 18             	mov    0x18(%eax),%eax
 80492eb:	dd 05 e8 e9 04 08    	fldl   0x804e9e8
 80492f1:	dd 58 68             	fstpl  0x68(%eax)
 80492f4:	eb 3f                	jmp    8049335 <screen_main+0x2c2>
 80492f6:	8b 45 0c             	mov    0xc(%ebp),%eax
 80492f9:	8b 40 04             	mov    0x4(%eax),%eax
 80492fc:	8b 40 18             	mov    0x18(%eax),%eax
 80492ff:	dd 05 f0 e9 04 08    	fldl   0x804e9f0
 8049305:	dd 58 68             	fstpl  0x68(%eax)
 8049308:	eb 2b                	jmp    8049335 <screen_main+0x2c2>
 804930a:	8b 45 0c             	mov    0xc(%ebp),%eax
 804930d:	8b 40 04             	mov    0x4(%eax),%eax
 8049310:	8b 40 18             	mov    0x18(%eax),%eax
 8049313:	dd 05 e8 e9 04 08    	fldl   0x804e9e8
 8049319:	dd 58 70             	fstpl  0x70(%eax)
 804931c:	eb 17                	jmp    8049335 <screen_main+0x2c2>
 804931e:	8b 45 0c             	mov    0xc(%ebp),%eax
 8049321:	8b 40 04             	mov    0x4(%eax),%eax
 8049324:	8b 40 18             	mov    0x18(%eax),%eax
 8049327:	dd 05 f0 e9 04 08    	fldl   0x804e9f0
 804932d:	dd 58 70             	fstpl  0x70(%eax)
 8049330:	e9 c6 01 00 00       	jmp    80494fb <screen_main+0x488>
 8049335:	e9 c1 01 00 00       	jmp    80494fb <screen_main+0x488>
 804933a:	a1 38 06 05 08       	mov    0x8050638,%eax
 804933f:	85 c0                	test   %eax,%eax
 8049341:	75 12                	jne    8049355 <screen_main+0x2e2>
 8049343:	a1 34 06 05 08       	mov    0x8050634,%eax
 8049348:	85 c0                	test   %eax,%eax
 804934a:	74 49                	je     8049395 <screen_main+0x322>
 804934c:	a1 44 06 05 08       	mov    0x8050644,%eax
 8049351:	85 c0                	test   %eax,%eax
 8049353:	74 40                	je     8049395 <screen_main+0x322>
 8049355:	8b 0d 88 06 05 08    	mov    0x8050688,%ecx
 804935b:	ba 18 e9 04 08       	mov    $0x804e918,%edx
 8049360:	a1 c0 00 05 08       	mov    0x80500c0,%eax
 8049365:	89 4c 24 18          	mov    %ecx,0x18(%esp)
 8049369:	c7 44 24 14 79 00 00 	movl   $0x79,0x14(%esp)
 8049370:	00 
 8049371:	c7 44 24 10 be e9 04 	movl   $0x804e9be,0x10(%esp)
 8049378:	08 
 8049379:	c7 44 24 0c 92 e8 04 	movl   $0x804e892,0xc(%esp)
 8049380:	08 
 8049381:	c7 44 24 08 9f e8 04 	movl   $0x804e89f,0x8(%esp)
 8049388:	08 
 8049389:	89 54 24 04          	mov    %edx,0x4(%esp)
 804938d:	89 04 24             	mov    %eax,(%esp)
 8049390:	e8 3f f8 ff ff       	call   8048bd4 <fprintf@plt>
 8049395:	a1 88 06 05 08       	mov    0x8050688,%eax
 804939a:	c7 04 85 20 01 05 08 	movl   $0x0,0x8050120(,%eax,4)
 80493a1:	00 00 00 00 
 80493a5:	a1 88 06 05 08       	mov    0x8050688,%eax
 80493aa:	83 f8 73             	cmp    $0x73,%eax
 80493ad:	0f 84 9d 00 00 00    	je     8049450 <screen_main+0x3dd>
 80493b3:	83 f8 73             	cmp    $0x73,%eax
 80493b6:	77 30                	ja     80493e8 <screen_main+0x375>
 80493b8:	83 f8 64             	cmp    $0x64,%eax
 80493bb:	0f 84 9f 00 00 00    	je     8049460 <screen_main+0x3ed>
 80493c1:	83 f8 64             	cmp    $0x64,%eax
 80493c4:	77 13                	ja     80493d9 <screen_main+0x366>
 80493c6:	83 f8 20             	cmp    $0x20,%eax
 80493c9:	74 47                	je     8049412 <screen_main+0x39f>
 80493cb:	83 f8 61             	cmp    $0x61,%eax
 80493ce:	0f 84 8c 00 00 00    	je     8049460 <screen_main+0x3ed>
 80493d4:	e9 22 01 00 00       	jmp    80494fb <screen_main+0x488>
 80493d9:	83 f8 65             	cmp    $0x65,%eax
 80493dc:	74 64                	je     8049442 <screen_main+0x3cf>
 80493de:	83 f8 71             	cmp    $0x71,%eax
 80493e1:	74 5f                	je     8049442 <screen_main+0x3cf>
 80493e3:	e9 13 01 00 00       	jmp    80494fb <screen_main+0x488>
 80493e8:	3d 12 01 00 00       	cmp    $0x112,%eax
 80493ed:	77 11                	ja     8049400 <screen_main+0x38d>
 80493ef:	3d 11 01 00 00       	cmp    $0x111,%eax
 80493f4:	73 3c                	jae    8049432 <screen_main+0x3bf>
 80493f6:	83 f8 77             	cmp    $0x77,%eax
 80493f9:	74 55                	je     8049450 <screen_main+0x3dd>
 80493fb:	e9 fb 00 00 00       	jmp    80494fb <screen_main+0x488>
 8049400:	3d 14 01 00 00       	cmp    $0x114,%eax
 8049405:	76 1b                	jbe    8049422 <screen_main+0x3af>
 8049407:	3d 30 01 00 00       	cmp    $0x130,%eax
 804940c:	0f 85 e8 00 00 00    	jne    80494fa <screen_main+0x487>
 8049412:	8b 45 0c             	mov    0xc(%ebp),%eax
 8049415:	8b 40 04             	mov    0x4(%eax),%eax
 8049418:	8b 40 18             	mov    0x18(%eax),%eax
 804941b:	d9 ee                	fldz   
 804941d:	dd 58 30             	fstpl  0x30(%eax)
 8049420:	eb 51                	jmp    8049473 <screen_main+0x400>
 8049422:	8b 45 0c             	mov    0xc(%ebp),%eax
 8049425:	8b 40 04             	mov    0x4(%eax),%eax
 8049428:	8b 40 18             	mov    0x18(%eax),%eax
 804942b:	d9 ee                	fldz   
 804942d:	dd 58 38             	fstpl  0x38(%eax)
 8049430:	eb 41                	jmp    8049473 <screen_main+0x400>
 8049432:	8b 45 0c             	mov    0xc(%ebp),%eax
 8049435:	8b 40 04             	mov    0x4(%eax),%eax
 8049438:	8b 40 18             	mov    0x18(%eax),%eax
 804943b:	d9 ee                	fldz   
 804943d:	dd 58 40             	fstpl  0x40(%eax)
 8049440:	eb 31                	jmp    8049473 <screen_main+0x400>
 8049442:	8b 45 0c             	mov    0xc(%ebp),%eax
 8049445:	8b 40 04             	mov    0x4(%eax),%eax
 8049448:	8b 40 18             	mov    0x18(%eax),%eax
 804944b:	d9 ee                	fldz   
 804944d:	dd 58 60             	fstpl  0x60(%eax)
 8049450:	8b 45 0c             	mov    0xc(%ebp),%eax
 8049453:	8b 40 04             	mov    0x4(%eax),%eax
 8049456:	8b 40 18             	mov    0x18(%eax),%eax
 8049459:	d9 ee                	fldz   
 804945b:	dd 58 68             	fstpl  0x68(%eax)
 804945e:	eb 13                	jmp    8049473 <screen_main+0x400>
 8049460:	8b 45 0c             	mov    0xc(%ebp),%eax
 8049463:	8b 40 04             	mov    0x4(%eax),%eax
 8049466:	8b 40 18             	mov    0x18(%eax),%eax
 8049469:	d9 ee                	fldz   
 804946b:	dd 58 70             	fstpl  0x70(%eax)
 804946e:	e9 88 00 00 00       	jmp    80494fb <screen_main+0x488>
 8049473:	e9 83 00 00 00       	jmp    80494fb <screen_main+0x488>
 8049478:	8b 45 08             	mov    0x8(%ebp),%eax
 804947b:	89 04 24             	mov    %eax,(%esp)
 804947e:	e8 ca 35 00 00       	call   804ca4d <scene_free>
 8049483:	e8 ac 3d 00 00       	call   804d234 <stack_free>
 8049488:	c7 04 24 06 00 00 00 	movl   $0x6,(%esp)
 804948f:	e8 f0 f6 ff ff       	call   8048b84 <raise@plt>
 8049494:	eb 65                	jmp    80494fb <screen_main+0x488>
 8049496:	a1 38 06 05 08       	mov    0x8050638,%eax
 804949b:	85 c0                	test   %eax,%eax
 804949d:	75 12                	jne    80494b1 <screen_main+0x43e>
 804949f:	a1 34 06 05 08       	mov    0x8050634,%eax
 80494a4:	85 c0                	test   %eax,%eax
 80494a6:	74 53                	je     80494fb <screen_main+0x488>
 80494a8:	a1 44 06 05 08       	mov    0x8050644,%eax
 80494ad:	85 c0                	test   %eax,%eax
 80494af:	74 4a                	je     80494fb <screen_main+0x488>
 80494b1:	0f b6 05 80 06 05 08 	movzbl 0x8050680,%eax
 80494b8:	0f b6 c8             	movzbl %al,%ecx
 80494bb:	ba 38 e9 04 08       	mov    $0x804e938,%edx
 80494c0:	a1 c0 00 05 08       	mov    0x80500c0,%eax
 80494c5:	89 4c 24 18          	mov    %ecx,0x18(%esp)
 80494c9:	c7 44 24 14 a1 00 00 	movl   $0xa1,0x14(%esp)
 80494d0:	00 
 80494d1:	c7 44 24 10 be e9 04 	movl   $0x804e9be,0x10(%esp)
 80494d8:	08 
 80494d9:	c7 44 24 0c 92 e8 04 	movl   $0x804e892,0xc(%esp)
 80494e0:	08 
 80494e1:	c7 44 24 08 9f e8 04 	movl   $0x804e89f,0x8(%esp)
 80494e8:	08 
 80494e9:	89 54 24 04          	mov    %edx,0x4(%esp)
 80494ed:	89 04 24             	mov    %eax,(%esp)
 80494f0:	e8 df f6 ff ff       	call   8048bd4 <fprintf@plt>
 80494f5:	eb 04                	jmp    80494fb <screen_main+0x488>
 80494f7:	90                   	nop
 80494f8:	eb 01                	jmp    80494fb <screen_main+0x488>
 80494fa:	90                   	nop
 80494fb:	8b 45 08             	mov    0x8(%ebp),%eax
 80494fe:	89 04 24             	mov    %eax,(%esp)
 8049501:	e8 15 30 00 00       	call   804c51b <animation_update_scene>
 8049506:	e8 6e 00 00 00       	call   8049579 <screen_clear>
 804950b:	8b 45 0c             	mov    0xc(%ebp),%eax
 804950e:	89 44 24 04          	mov    %eax,0x4(%esp)
 8049512:	8b 45 08             	mov    0x8(%ebp),%eax
 8049515:	89 04 24             	mov    %eax,(%esp)
 8049518:	e8 77 3d 00 00       	call   804d294 <render_scene>
 804951d:	e8 8b 00 00 00       	call   80495ad <screen_refresh>
 8049522:	83 c4 24             	add    $0x24,%esp
 8049525:	5b                   	pop    %ebx
 8049526:	5d                   	pop    %ebp
 8049527:	c3                   	ret    

08049528 <click>:
 8049528:	55                   	push   %ebp
 8049529:	89 e5                	mov    %esp,%ebp
 804952b:	83 ec 28             	sub    $0x28,%esp
 804952e:	8b 45 10             	mov    0x10(%ebp),%eax
 8049531:	83 f8 01             	cmp    $0x1,%eax
 8049534:	74 3d                	je     8049573 <click+0x4b>
 8049536:	83 f8 03             	cmp    $0x3,%eax
 8049539:	74 3b                	je     8049576 <click+0x4e>
 804953b:	ba 94 e9 04 08       	mov    $0x804e994,%edx
 8049540:	a1 c0 00 05 08       	mov    0x80500c0,%eax
 8049545:	c7 44 24 14 c9 00 00 	movl   $0xc9,0x14(%esp)
 804954c:	00 
 804954d:	c7 44 24 10 b8 e9 04 	movl   $0x804e9b8,0x10(%esp)
 8049554:	08 
 8049555:	c7 44 24 0c 92 e8 04 	movl   $0x804e892,0xc(%esp)
 804955c:	08 
 804955d:	c7 44 24 08 9f e8 04 	movl   $0x804e89f,0x8(%esp)
 8049564:	08 
 8049565:	89 54 24 04          	mov    %edx,0x4(%esp)
 8049569:	89 04 24             	mov    %eax,(%esp)
 804956c:	e8 63 f6 ff ff       	call   8048bd4 <fprintf@plt>
 8049571:	eb 04                	jmp    8049577 <click+0x4f>
 8049573:	90                   	nop
 8049574:	eb 01                	jmp    8049577 <click+0x4f>
 8049576:	90                   	nop
 8049577:	c9                   	leave  
 8049578:	c3                   	ret    

08049579 <screen_clear>:
 8049579:	55                   	push   %ebp
 804957a:	89 e5                	mov    %esp,%ebp
 804957c:	83 ec 18             	sub    $0x18,%esp
 804957f:	8b 15 70 06 05 08    	mov    0x8050670,%edx
 8049585:	a1 5c 06 05 08       	mov    0x805065c,%eax
 804958a:	0f af c2             	imul   %edx,%eax
 804958d:	c1 e0 02             	shl    $0x2,%eax
 8049590:	89 c2                	mov    %eax,%edx
 8049592:	a1 74 06 05 08       	mov    0x8050674,%eax
 8049597:	89 54 24 08          	mov    %edx,0x8(%esp)
 804959b:	c7 44 24 04 00 00 00 	movl   $0x0,0x4(%esp)
 80495a2:	00 
 80495a3:	89 04 24             	mov    %eax,(%esp)
 80495a6:	e8 e9 f4 ff ff       	call   8048a94 <memset@plt>
 80495ab:	c9                   	leave  
 80495ac:	c3                   	ret    

080495ad <screen_refresh>:
 80495ad:	55                   	push   %ebp
 80495ae:	89 e5                	mov    %esp,%ebp
 80495b0:	83 ec 28             	sub    $0x28,%esp
 80495b3:	a1 5c 06 05 08       	mov    0x805065c,%eax
 80495b8:	89 c1                	mov    %eax,%ecx
 80495ba:	a1 70 06 05 08       	mov    0x8050670,%eax
 80495bf:	89 c2                	mov    %eax,%edx
 80495c1:	a1 7c 06 05 08       	mov    0x805067c,%eax
 80495c6:	89 4c 24 10          	mov    %ecx,0x10(%esp)
 80495ca:	89 54 24 0c          	mov    %edx,0xc(%esp)
 80495ce:	c7 44 24 08 00 00 00 	movl   $0x0,0x8(%esp)
 80495d5:	00 
 80495d6:	c7 44 24 04 00 00 00 	movl   $0x0,0x4(%esp)
 80495dd:	00 
 80495de:	89 04 24             	mov    %eax,(%esp)
 80495e1:	e8 2e f6 ff ff       	call   8048c14 <SDL_UpdateRect@plt>
 80495e6:	c9                   	leave  
 80495e7:	c3                   	ret    

080495e8 <matrix_new>:
 80495e8:	55                   	push   %ebp
 80495e9:	89 e5                	mov    %esp,%ebp
 80495eb:	83 ec 28             	sub    $0x28,%esp
 80495ee:	c7 04 24 10 00 00 00 	movl   $0x10,(%esp)
 80495f5:	e8 ea f5 ff ff       	call   8048be4 <malloc@plt>
 80495fa:	89 45 f4             	mov    %eax,-0xc(%ebp)
 80495fd:	8b 45 f4             	mov    -0xc(%ebp),%eax
 8049600:	8b 55 0c             	mov    0xc(%ebp),%edx
 8049603:	89 50 04             	mov    %edx,0x4(%eax)
 8049606:	8b 45 f4             	mov    -0xc(%ebp),%eax
 8049609:	8b 55 08             	mov    0x8(%ebp),%edx
 804960c:	89 50 08             	mov    %edx,0x8(%eax)
 804960f:	8b 45 f4             	mov    -0xc(%ebp),%eax
 8049612:	c7 40 0c 00 00 00 00 	movl   $0x0,0xc(%eax)
 8049619:	8b 45 08             	mov    0x8(%ebp),%eax
 804961c:	c1 e0 02             	shl    $0x2,%eax
 804961f:	89 04 24             	mov    %eax,(%esp)
 8049622:	e8 bd f5 ff ff       	call   8048be4 <malloc@plt>
 8049627:	89 c2                	mov    %eax,%edx
 8049629:	8b 45 f4             	mov    -0xc(%ebp),%eax
 804962c:	89 10                	mov    %edx,(%eax)
 804962e:	8b 45 0c             	mov    0xc(%ebp),%eax
 8049631:	0f af 45 08          	imul   0x8(%ebp),%eax
 8049635:	c1 e0 03             	shl    $0x3,%eax
 8049638:	89 04 24             	mov    %eax,(%esp)
 804963b:	e8 a4 f5 ff ff       	call   8048be4 <malloc@plt>
 8049640:	89 45 f0             	mov    %eax,-0x10(%ebp)
 8049643:	c7 45 ec 00 00 00 00 	movl   $0x0,-0x14(%ebp)
 804964a:	eb 21                	jmp    804966d <matrix_new+0x85>
 804964c:	8b 45 f4             	mov    -0xc(%ebp),%eax
 804964f:	8b 00                	mov    (%eax),%eax
 8049651:	8b 55 ec             	mov    -0x14(%ebp),%edx
 8049654:	c1 e2 02             	shl    $0x2,%edx
 8049657:	8d 14 10             	lea    (%eax,%edx,1),%edx
 804965a:	8b 45 ec             	mov    -0x14(%ebp),%eax
 804965d:	0f af 45 0c          	imul   0xc(%ebp),%eax
 8049661:	c1 e0 03             	shl    $0x3,%eax
 8049664:	03 45 f0             	add    -0x10(%ebp),%eax
 8049667:	89 02                	mov    %eax,(%edx)
 8049669:	83 45 ec 01          	addl   $0x1,-0x14(%ebp)
 804966d:	8b 45 ec             	mov    -0x14(%ebp),%eax
 8049670:	3b 45 08             	cmp    0x8(%ebp),%eax
 8049673:	7c d7                	jl     804964c <matrix_new+0x64>
 8049675:	8b 45 f4             	mov    -0xc(%ebp),%eax
 8049678:	c9                   	leave  
 8049679:	c3                   	ret    

0804967a <matrix_resize>:
 804967a:	55                   	push   %ebp
 804967b:	89 e5                	mov    %esp,%ebp
 804967d:	53                   	push   %ebx
 804967e:	83 ec 24             	sub    $0x24,%esp
 8049681:	8b 45 08             	mov    0x8(%ebp),%eax
 8049684:	8b 18                	mov    (%eax),%ebx
 8049686:	8b 45 10             	mov    0x10(%ebp),%eax
 8049689:	0f af 45 0c          	imul   0xc(%ebp),%eax
 804968d:	8d 14 c5 00 00 00 00 	lea    0x0(,%eax,8),%edx
 8049694:	8b 45 08             	mov    0x8(%ebp),%eax
 8049697:	8b 00                	mov    (%eax),%eax
 8049699:	8b 00                	mov    (%eax),%eax
 804969b:	89 54 24 04          	mov    %edx,0x4(%esp)
 804969f:	89 04 24             	mov    %eax,(%esp)
 80496a2:	e8 ad f3 ff ff       	call   8048a54 <realloc@plt>
 80496a7:	89 03                	mov    %eax,(%ebx)
 80496a9:	8b 03                	mov    (%ebx),%eax
 80496ab:	89 45 f4             	mov    %eax,-0xc(%ebp)
 80496ae:	8b 45 0c             	mov    0xc(%ebp),%eax
 80496b1:	8d 14 85 00 00 00 00 	lea    0x0(,%eax,4),%edx
 80496b8:	8b 45 08             	mov    0x8(%ebp),%eax
 80496bb:	8b 00                	mov    (%eax),%eax
 80496bd:	89 54 24 04          	mov    %edx,0x4(%esp)
 80496c1:	89 04 24             	mov    %eax,(%esp)
 80496c4:	e8 8b f3 ff ff       	call   8048a54 <realloc@plt>
 80496c9:	89 c2                	mov    %eax,%edx
 80496cb:	8b 45 08             	mov    0x8(%ebp),%eax
 80496ce:	89 10                	mov    %edx,(%eax)
 80496d0:	c7 45 f0 01 00 00 00 	movl   $0x1,-0x10(%ebp)
 80496d7:	eb 21                	jmp    80496fa <matrix_resize+0x80>
 80496d9:	8b 45 08             	mov    0x8(%ebp),%eax
 80496dc:	8b 00                	mov    (%eax),%eax
 80496de:	8b 55 f0             	mov    -0x10(%ebp),%edx
 80496e1:	c1 e2 02             	shl    $0x2,%edx
 80496e4:	8d 14 10             	lea    (%eax,%edx,1),%edx
 80496e7:	8b 45 f0             	mov    -0x10(%ebp),%eax
 80496ea:	0f af 45 10          	imul   0x10(%ebp),%eax
 80496ee:	c1 e0 03             	shl    $0x3,%eax
 80496f1:	03 45 f4             	add    -0xc(%ebp),%eax
 80496f4:	89 02                	mov    %eax,(%edx)
 80496f6:	83 45 f0 01          	addl   $0x1,-0x10(%ebp)
 80496fa:	8b 45 f0             	mov    -0x10(%ebp),%eax
 80496fd:	3b 45 0c             	cmp    0xc(%ebp),%eax
 8049700:	7c d7                	jl     80496d9 <matrix_resize+0x5f>
 8049702:	8b 45 08             	mov    0x8(%ebp),%eax
 8049705:	8b 55 10             	mov    0x10(%ebp),%edx
 8049708:	89 50 04             	mov    %edx,0x4(%eax)
 804970b:	8b 45 08             	mov    0x8(%ebp),%eax
 804970e:	8b 55 0c             	mov    0xc(%ebp),%edx
 8049711:	89 50 08             	mov    %edx,0x8(%eax)
 8049714:	8b 45 08             	mov    0x8(%ebp),%eax
 8049717:	8b 50 0c             	mov    0xc(%eax),%edx
 804971a:	8b 45 08             	mov    0x8(%ebp),%eax
 804971d:	8b 40 08             	mov    0x8(%eax),%eax
 8049720:	39 c2                	cmp    %eax,%edx
 8049722:	7e 0c                	jle    8049730 <matrix_resize+0xb6>
 8049724:	8b 45 08             	mov    0x8(%ebp),%eax
 8049727:	8b 50 08             	mov    0x8(%eax),%edx
 804972a:	8b 45 08             	mov    0x8(%ebp),%eax
 804972d:	89 50 0c             	mov    %edx,0xc(%eax)
 8049730:	83 c4 24             	add    $0x24,%esp
 8049733:	5b                   	pop    %ebx
 8049734:	5d                   	pop    %ebp
 8049735:	c3                   	ret    

08049736 <matrix_free>:
 8049736:	55                   	push   %ebp
 8049737:	89 e5                	mov    %esp,%ebp
 8049739:	83 ec 18             	sub    $0x18,%esp
 804973c:	8b 45 08             	mov    0x8(%ebp),%eax
 804973f:	8b 00                	mov    (%eax),%eax
 8049741:	8b 00                	mov    (%eax),%eax
 8049743:	89 04 24             	mov    %eax,(%esp)
 8049746:	e8 a9 f3 ff ff       	call   8048af4 <free@plt>
 804974b:	8b 45 08             	mov    0x8(%ebp),%eax
 804974e:	8b 00                	mov    (%eax),%eax
 8049750:	89 04 24             	mov    %eax,(%esp)
 8049753:	e8 9c f3 ff ff       	call   8048af4 <free@plt>
 8049758:	8b 45 08             	mov    0x8(%ebp),%eax
 804975b:	89 04 24             	mov    %eax,(%esp)
 804975e:	e8 91 f3 ff ff       	call   8048af4 <free@plt>
 8049763:	c9                   	leave  
 8049764:	c3                   	ret    

08049765 <matrix_print>:
 8049765:	55                   	push   %ebp
 8049766:	89 e5                	mov    %esp,%ebp
 8049768:	53                   	push   %ebx
 8049769:	83 ec 24             	sub    $0x24,%esp
 804976c:	8b 45 08             	mov    0x8(%ebp),%eax
 804976f:	8b 58 0c             	mov    0xc(%eax),%ebx
 8049772:	8b 45 08             	mov    0x8(%ebp),%eax
 8049775:	8b 48 08             	mov    0x8(%eax),%ecx
 8049778:	8b 45 08             	mov    0x8(%ebp),%eax
 804977b:	8b 50 04             	mov    0x4(%eax),%edx
 804977e:	b8 f8 e9 04 08       	mov    $0x804e9f8,%eax
 8049783:	89 5c 24 0c          	mov    %ebx,0xc(%esp)
 8049787:	89 4c 24 08          	mov    %ecx,0x8(%esp)
 804978b:	89 54 24 04          	mov    %edx,0x4(%esp)
 804978f:	89 04 24             	mov    %eax,(%esp)
 8049792:	e8 dd f3 ff ff       	call   8048b74 <printf@plt>
 8049797:	c7 45 f4 00 00 00 00 	movl   $0x0,-0xc(%ebp)
 804979e:	eb 26                	jmp    80497c6 <matrix_print+0x61>
 80497a0:	8b 45 08             	mov    0x8(%ebp),%eax
 80497a3:	8b 00                	mov    (%eax),%eax
 80497a5:	8b 55 f4             	mov    -0xc(%ebp),%edx
 80497a8:	c1 e2 02             	shl    $0x2,%edx
 80497ab:	01 d0                	add    %edx,%eax
 80497ad:	8b 00                	mov    (%eax),%eax
 80497af:	89 c2                	mov    %eax,%edx
 80497b1:	b8 19 ea 04 08       	mov    $0x804ea19,%eax
 80497b6:	89 54 24 04          	mov    %edx,0x4(%esp)
 80497ba:	89 04 24             	mov    %eax,(%esp)
 80497bd:	e8 b2 f3 ff ff       	call   8048b74 <printf@plt>
 80497c2:	83 45 f4 01          	addl   $0x1,-0xc(%ebp)
 80497c6:	8b 45 08             	mov    0x8(%ebp),%eax
 80497c9:	8b 40 08             	mov    0x8(%eax),%eax
 80497cc:	3b 45 f4             	cmp    -0xc(%ebp),%eax
 80497cf:	7f cf                	jg     80497a0 <matrix_print+0x3b>
 80497d1:	c7 04 24 1f ea 04 08 	movl   $0x804ea1f,(%esp)
 80497d8:	e8 47 f4 ff ff       	call   8048c24 <puts@plt>
 80497dd:	c7 45 f4 00 00 00 00 	movl   $0x0,-0xc(%ebp)
 80497e4:	eb 5d                	jmp    8049843 <matrix_print+0xde>
 80497e6:	b8 21 ea 04 08       	mov    $0x804ea21,%eax
 80497eb:	89 04 24             	mov    %eax,(%esp)
 80497ee:	e8 81 f3 ff ff       	call   8048b74 <printf@plt>
 80497f3:	c7 45 f0 00 00 00 00 	movl   $0x0,-0x10(%ebp)
 80497fa:	eb 2c                	jmp    8049828 <matrix_print+0xc3>
 80497fc:	8b 45 08             	mov    0x8(%ebp),%eax
 80497ff:	8b 00                	mov    (%eax),%eax
 8049801:	8b 00                	mov    (%eax),%eax
 8049803:	8b 55 f0             	mov    -0x10(%ebp),%edx
 8049806:	c1 e2 02             	shl    $0x2,%edx
 8049809:	03 55 f4             	add    -0xc(%ebp),%edx
 804980c:	c1 e2 03             	shl    $0x3,%edx
 804980f:	01 d0                	add    %edx,%eax
 8049811:	dd 00                	fldl   (%eax)
 8049813:	b8 26 ea 04 08       	mov    $0x804ea26,%eax
 8049818:	dd 5c 24 04          	fstpl  0x4(%esp)
 804981c:	89 04 24             	mov    %eax,(%esp)
 804981f:	e8 50 f3 ff ff       	call   8048b74 <printf@plt>
 8049824:	83 45 f0 01          	addl   $0x1,-0x10(%ebp)
 8049828:	8b 45 08             	mov    0x8(%ebp),%eax
 804982b:	8b 40 08             	mov    0x8(%eax),%eax
 804982e:	3b 45 f0             	cmp    -0x10(%ebp),%eax
 8049831:	7f c9                	jg     80497fc <matrix_print+0x97>
 8049833:	c7 04 24 1f ea 04 08 	movl   $0x804ea1f,(%esp)
 804983a:	e8 e5 f3 ff ff       	call   8048c24 <puts@plt>
 804983f:	83 45 f4 01          	addl   $0x1,-0xc(%ebp)
 8049843:	8b 45 08             	mov    0x8(%ebp),%eax
 8049846:	8b 40 04             	mov    0x4(%eax),%eax
 8049849:	3b 45 f4             	cmp    -0xc(%ebp),%eax
 804984c:	7f 98                	jg     80497e6 <matrix_print+0x81>
 804984e:	c7 04 24 1f ea 04 08 	movl   $0x804ea1f,(%esp)
 8049855:	e8 ca f3 ff ff       	call   8048c24 <puts@plt>
 804985a:	83 c4 24             	add    $0x24,%esp
 804985d:	5b                   	pop    %ebx
 804985e:	5d                   	pop    %ebp
 804985f:	c3                   	ret    

08049860 <matrix_make_zero>:
 8049860:	55                   	push   %ebp
 8049861:	89 e5                	mov    %esp,%ebp
 8049863:	83 ec 10             	sub    $0x10,%esp
 8049866:	c7 45 fc 00 00 00 00 	movl   $0x0,-0x4(%ebp)
 804986d:	eb 17                	jmp    8049886 <matrix_make_zero+0x26>
 804986f:	8b 45 08             	mov    0x8(%ebp),%eax
 8049872:	8b 00                	mov    (%eax),%eax
 8049874:	8b 00                	mov    (%eax),%eax
 8049876:	8b 55 fc             	mov    -0x4(%ebp),%edx
 8049879:	c1 e2 03             	shl    $0x3,%edx
 804987c:	01 d0                	add    %edx,%eax
 804987e:	d9 ee                	fldz   
 8049880:	dd 18                	fstpl  (%eax)
 8049882:	83 45 fc 01          	addl   $0x1,-0x4(%ebp)
 8049886:	8b 45 08             	mov    0x8(%ebp),%eax
 8049889:	8b 50 08             	mov    0x8(%eax),%edx
 804988c:	8b 45 08             	mov    0x8(%ebp),%eax
 804988f:	8b 40 04             	mov    0x4(%eax),%eax
 8049892:	0f af c2             	imul   %edx,%eax
 8049895:	3b 45 fc             	cmp    -0x4(%ebp),%eax
 8049898:	7f d5                	jg     804986f <matrix_make_zero+0xf>
 804989a:	c9                   	leave  
 804989b:	c3                   	ret    

0804989c <matrix_make_ident>:
 804989c:	55                   	push   %ebp
 804989d:	89 e5                	mov    %esp,%ebp
 804989f:	83 ec 10             	sub    $0x10,%esp
 80498a2:	c7 45 fc 00 00 00 00 	movl   $0x0,-0x4(%ebp)
 80498a9:	eb 5c                	jmp    8049907 <matrix_make_ident+0x6b>
 80498ab:	c7 45 f8 00 00 00 00 	movl   $0x0,-0x8(%ebp)
 80498b2:	eb 44                	jmp    80498f8 <matrix_make_ident+0x5c>
 80498b4:	8b 45 fc             	mov    -0x4(%ebp),%eax
 80498b7:	3b 45 f8             	cmp    -0x8(%ebp),%eax
 80498ba:	75 1d                	jne    80498d9 <matrix_make_ident+0x3d>
 80498bc:	8b 45 08             	mov    0x8(%ebp),%eax
 80498bf:	8b 00                	mov    (%eax),%eax
 80498c1:	8b 55 fc             	mov    -0x4(%ebp),%edx
 80498c4:	c1 e2 02             	shl    $0x2,%edx
 80498c7:	01 d0                	add    %edx,%eax
 80498c9:	8b 00                	mov    (%eax),%eax
 80498cb:	8b 55 f8             	mov    -0x8(%ebp),%edx
 80498ce:	c1 e2 03             	shl    $0x3,%edx
 80498d1:	01 d0                	add    %edx,%eax
 80498d3:	d9 e8                	fld1   
 80498d5:	dd 18                	fstpl  (%eax)
 80498d7:	eb 1b                	jmp    80498f4 <matrix_make_ident+0x58>
 80498d9:	8b 45 08             	mov    0x8(%ebp),%eax
 80498dc:	8b 00                	mov    (%eax),%eax
 80498de:	8b 55 fc             	mov    -0x4(%ebp),%edx
 80498e1:	c1 e2 02             	shl    $0x2,%edx
 80498e4:	01 d0                	add    %edx,%eax
 80498e6:	8b 00                	mov    (%eax),%eax
 80498e8:	8b 55 f8             	mov    -0x8(%ebp),%edx
 80498eb:	c1 e2 03             	shl    $0x3,%edx
 80498ee:	01 d0                	add    %edx,%eax
 80498f0:	d9 ee                	fldz   
 80498f2:	dd 18                	fstpl  (%eax)
 80498f4:	83 45 f8 01          	addl   $0x1,-0x8(%ebp)
 80498f8:	8b 45 08             	mov    0x8(%ebp),%eax
 80498fb:	8b 40 04             	mov    0x4(%eax),%eax
 80498fe:	3b 45 f8             	cmp    -0x8(%ebp),%eax
 8049901:	7f b1                	jg     80498b4 <matrix_make_ident+0x18>
 8049903:	83 45 fc 01          	addl   $0x1,-0x4(%ebp)
 8049907:	8b 45 08             	mov    0x8(%ebp),%eax
 804990a:	8b 40 08             	mov    0x8(%eax),%eax
 804990d:	3b 45 fc             	cmp    -0x4(%ebp),%eax
 8049910:	7f 99                	jg     80498ab <matrix_make_ident+0xf>
 8049912:	c9                   	leave  
 8049913:	c3                   	ret    

08049914 <matrix_scalar_mult>:
 8049914:	55                   	push   %ebp
 8049915:	89 e5                	mov    %esp,%ebp
 8049917:	83 ec 18             	sub    $0x18,%esp
 804991a:	8b 45 0c             	mov    0xc(%ebp),%eax
 804991d:	89 45 e8             	mov    %eax,-0x18(%ebp)
 8049920:	8b 45 10             	mov    0x10(%ebp),%eax
 8049923:	89 45 ec             	mov    %eax,-0x14(%ebp)
 8049926:	c7 45 fc 00 00 00 00 	movl   $0x0,-0x4(%ebp)
 804992d:	eb 52                	jmp    8049981 <matrix_scalar_mult+0x6d>
 804992f:	c7 45 f8 00 00 00 00 	movl   $0x0,-0x8(%ebp)
 8049936:	eb 3a                	jmp    8049972 <matrix_scalar_mult+0x5e>
 8049938:	8b 45 08             	mov    0x8(%ebp),%eax
 804993b:	8b 00                	mov    (%eax),%eax
 804993d:	8b 55 fc             	mov    -0x4(%ebp),%edx
 8049940:	c1 e2 02             	shl    $0x2,%edx
 8049943:	01 d0                	add    %edx,%eax
 8049945:	8b 00                	mov    (%eax),%eax
 8049947:	8b 55 f8             	mov    -0x8(%ebp),%edx
 804994a:	c1 e2 03             	shl    $0x3,%edx
 804994d:	8d 14 10             	lea    (%eax,%edx,1),%edx
 8049950:	8b 45 08             	mov    0x8(%ebp),%eax
 8049953:	8b 00                	mov    (%eax),%eax
 8049955:	8b 4d fc             	mov    -0x4(%ebp),%ecx
 8049958:	c1 e1 02             	shl    $0x2,%ecx
 804995b:	01 c8                	add    %ecx,%eax
 804995d:	8b 00                	mov    (%eax),%eax
 804995f:	8b 4d f8             	mov    -0x8(%ebp),%ecx
 8049962:	c1 e1 03             	shl    $0x3,%ecx
 8049965:	01 c8                	add    %ecx,%eax
 8049967:	dd 00                	fldl   (%eax)
 8049969:	dc 4d e8             	fmull  -0x18(%ebp)
 804996c:	dd 1a                	fstpl  (%edx)
 804996e:	83 45 f8 01          	addl   $0x1,-0x8(%ebp)
 8049972:	8b 45 08             	mov    0x8(%ebp),%eax
 8049975:	8b 40 04             	mov    0x4(%eax),%eax
 8049978:	3b 45 f8             	cmp    -0x8(%ebp),%eax
 804997b:	7f bb                	jg     8049938 <matrix_scalar_mult+0x24>
 804997d:	83 45 fc 01          	addl   $0x1,-0x4(%ebp)
 8049981:	8b 45 08             	mov    0x8(%ebp),%eax
 8049984:	8b 40 08             	mov    0x8(%eax),%eax
 8049987:	3b 45 fc             	cmp    -0x4(%ebp),%eax
 804998a:	7f a3                	jg     804992f <matrix_scalar_mult+0x1b>
 804998c:	c9                   	leave  
 804998d:	c3                   	ret    

0804998e <matrix_mult>:
 804998e:	55                   	push   %ebp
 804998f:	89 e5                	mov    %esp,%ebp
 8049991:	83 ec 20             	sub    $0x20,%esp
 8049994:	8b 45 08             	mov    0x8(%ebp),%eax
 8049997:	8b 00                	mov    (%eax),%eax
 8049999:	89 45 f0             	mov    %eax,-0x10(%ebp)
 804999c:	8b 45 0c             	mov    0xc(%ebp),%eax
 804999f:	8b 00                	mov    (%eax),%eax
 80499a1:	89 45 ec             	mov    %eax,-0x14(%ebp)
 80499a4:	8b 45 10             	mov    0x10(%ebp),%eax
 80499a7:	8b 00                	mov    (%eax),%eax
 80499a9:	89 45 e8             	mov    %eax,-0x18(%ebp)
 80499ac:	c7 45 fc 00 00 00 00 	movl   $0x0,-0x4(%ebp)
 80499b3:	e9 a8 00 00 00       	jmp    8049a60 <matrix_mult+0xd2>
 80499b8:	c7 45 f8 00 00 00 00 	movl   $0x0,-0x8(%ebp)
 80499bf:	e9 89 00 00 00       	jmp    8049a4d <matrix_mult+0xbf>
 80499c4:	8b 45 f0             	mov    -0x10(%ebp),%eax
 80499c7:	8b 00                	mov    (%eax),%eax
 80499c9:	8b 55 fc             	mov    -0x4(%ebp),%edx
 80499cc:	c1 e2 03             	shl    $0x3,%edx
 80499cf:	01 d0                	add    %edx,%eax
 80499d1:	dd 00                	fldl   (%eax)
 80499d3:	8b 45 f8             	mov    -0x8(%ebp),%eax
 80499d6:	c1 e0 02             	shl    $0x2,%eax
 80499d9:	03 45 ec             	add    -0x14(%ebp),%eax
 80499dc:	8b 00                	mov    (%eax),%eax
 80499de:	dd 00                	fldl   (%eax)
 80499e0:	de c9                	fmulp  %st,%st(1)
 80499e2:	dd 5d e0             	fstpl  -0x20(%ebp)
 80499e5:	c7 45 f4 01 00 00 00 	movl   $0x1,-0xc(%ebp)
 80499ec:	eb 38                	jmp    8049a26 <matrix_mult+0x98>
 80499ee:	8b 45 f4             	mov    -0xc(%ebp),%eax
 80499f1:	c1 e0 02             	shl    $0x2,%eax
 80499f4:	03 45 f0             	add    -0x10(%ebp),%eax
 80499f7:	8b 00                	mov    (%eax),%eax
 80499f9:	8b 55 fc             	mov    -0x4(%ebp),%edx
 80499fc:	c1 e2 03             	shl    $0x3,%edx
 80499ff:	01 d0                	add    %edx,%eax
 8049a01:	dd 00                	fldl   (%eax)
 8049a03:	8b 45 f8             	mov    -0x8(%ebp),%eax
 8049a06:	c1 e0 02             	shl    $0x2,%eax
 8049a09:	03 45 ec             	add    -0x14(%ebp),%eax
 8049a0c:	8b 00                	mov    (%eax),%eax
 8049a0e:	8b 55 f4             	mov    -0xc(%ebp),%edx
 8049a11:	c1 e2 03             	shl    $0x3,%edx
 8049a14:	01 d0                	add    %edx,%eax
 8049a16:	dd 00                	fldl   (%eax)
 8049a18:	de c9                	fmulp  %st,%st(1)
 8049a1a:	dd 45 e0             	fldl   -0x20(%ebp)
 8049a1d:	de c1                	faddp  %st,%st(1)
 8049a1f:	dd 5d e0             	fstpl  -0x20(%ebp)
 8049a22:	83 45 f4 01          	addl   $0x1,-0xc(%ebp)
 8049a26:	8b 45 08             	mov    0x8(%ebp),%eax
 8049a29:	8b 40 08             	mov    0x8(%eax),%eax
 8049a2c:	3b 45 f4             	cmp    -0xc(%ebp),%eax
 8049a2f:	7f bd                	jg     80499ee <matrix_mult+0x60>
 8049a31:	8b 45 f8             	mov    -0x8(%ebp),%eax
 8049a34:	c1 e0 02             	shl    $0x2,%eax
 8049a37:	03 45 e8             	add    -0x18(%ebp),%eax
 8049a3a:	8b 00                	mov    (%eax),%eax
 8049a3c:	8b 55 fc             	mov    -0x4(%ebp),%edx
 8049a3f:	c1 e2 03             	shl    $0x3,%edx
 8049a42:	01 d0                	add    %edx,%eax
 8049a44:	dd 45 e0             	fldl   -0x20(%ebp)
 8049a47:	dd 18                	fstpl  (%eax)
 8049a49:	83 45 f8 01          	addl   $0x1,-0x8(%ebp)
 8049a4d:	8b 45 0c             	mov    0xc(%ebp),%eax
 8049a50:	8b 40 08             	mov    0x8(%eax),%eax
 8049a53:	3b 45 f8             	cmp    -0x8(%ebp),%eax
 8049a56:	0f 8f 68 ff ff ff    	jg     80499c4 <matrix_mult+0x36>
 8049a5c:	83 45 fc 01          	addl   $0x1,-0x4(%ebp)
 8049a60:	8b 45 08             	mov    0x8(%ebp),%eax
 8049a63:	8b 40 04             	mov    0x4(%eax),%eax
 8049a66:	3b 45 fc             	cmp    -0x4(%ebp),%eax
 8049a69:	0f 8f 49 ff ff ff    	jg     80499b8 <matrix_mult+0x2a>
 8049a6f:	c9                   	leave  
 8049a70:	c3                   	ret    

08049a71 <matrix_mult_inplace>:
 8049a71:	55                   	push   %ebp
 8049a72:	89 e5                	mov    %esp,%ebp
 8049a74:	57                   	push   %edi
 8049a75:	56                   	push   %esi
 8049a76:	53                   	push   %ebx
 8049a77:	83 ec 6c             	sub    $0x6c,%esp
 8049a7a:	8b 45 08             	mov    0x8(%ebp),%eax
 8049a7d:	89 45 b4             	mov    %eax,-0x4c(%ebp)
 8049a80:	8b 45 0c             	mov    0xc(%ebp),%eax
 8049a83:	89 45 b0             	mov    %eax,-0x50(%ebp)
 8049a86:	65 a1 14 00 00 00    	mov    %gs:0x14,%eax
 8049a8c:	89 45 e4             	mov    %eax,-0x1c(%ebp)
 8049a8f:	31 c0                	xor    %eax,%eax
 8049a91:	89 e0                	mov    %esp,%eax
 8049a93:	89 c7                	mov    %eax,%edi
 8049a95:	8b 45 b0             	mov    -0x50(%ebp),%eax
 8049a98:	8b 40 04             	mov    0x4(%eax),%eax
 8049a9b:	89 45 d4             	mov    %eax,-0x2c(%ebp)
 8049a9e:	8b 45 b4             	mov    -0x4c(%ebp),%eax
 8049aa1:	8b 50 04             	mov    0x4(%eax),%edx
 8049aa4:	8b 45 b0             	mov    -0x50(%ebp),%eax
 8049aa7:	8b 40 08             	mov    0x8(%eax),%eax
 8049aaa:	89 d1                	mov    %edx,%ecx
 8049aac:	0f af c8             	imul   %eax,%ecx
 8049aaf:	8d 41 ff             	lea    -0x1(%ecx),%eax
 8049ab2:	89 45 c8             	mov    %eax,-0x38(%ebp)
 8049ab5:	89 c8                	mov    %ecx,%eax
 8049ab7:	ba 00 00 00 00       	mov    $0x0,%edx
 8049abc:	89 c3                	mov    %eax,%ebx
 8049abe:	80 e7 ff             	and    $0xff,%bh
 8049ac1:	89 d6                	mov    %edx,%esi
 8049ac3:	83 e6 0f             	and    $0xf,%esi
 8049ac6:	89 d8                	mov    %ebx,%eax
 8049ac8:	89 f2                	mov    %esi,%edx
 8049aca:	0f a4 c2 06          	shld   $0x6,%eax,%edx
 8049ace:	c1 e0 06             	shl    $0x6,%eax
 8049ad1:	89 c3                	mov    %eax,%ebx
 8049ad3:	80 e7 ff             	and    $0xff,%bh
 8049ad6:	89 5d a8             	mov    %ebx,-0x58(%ebp)
 8049ad9:	89 d3                	mov    %edx,%ebx
 8049adb:	83 e3 0f             	and    $0xf,%ebx
 8049ade:	89 5d ac             	mov    %ebx,-0x54(%ebp)
 8049ae1:	8b 45 a8             	mov    -0x58(%ebp),%eax
 8049ae4:	8b 55 ac             	mov    -0x54(%ebp),%edx
 8049ae7:	89 c8                	mov    %ecx,%eax
 8049ae9:	ba 00 00 00 00       	mov    $0x0,%edx
 8049aee:	89 c3                	mov    %eax,%ebx
 8049af0:	80 e7 ff             	and    $0xff,%bh
 8049af3:	89 5d a0             	mov    %ebx,-0x60(%ebp)
 8049af6:	89 d3                	mov    %edx,%ebx
 8049af8:	83 e3 0f             	and    $0xf,%ebx
 8049afb:	89 5d a4             	mov    %ebx,-0x5c(%ebp)
 8049afe:	8b 45 a0             	mov    -0x60(%ebp),%eax
 8049b01:	8b 55 a4             	mov    -0x5c(%ebp),%edx
 8049b04:	0f a4 c2 06          	shld   $0x6,%eax,%edx
 8049b08:	c1 e0 06             	shl    $0x6,%eax
 8049b0b:	89 c3                	mov    %eax,%ebx
 8049b0d:	80 e7 ff             	and    $0xff,%bh
 8049b10:	89 5d 98             	mov    %ebx,-0x68(%ebp)
 8049b13:	89 d3                	mov    %edx,%ebx
 8049b15:	83 e3 0f             	and    $0xf,%ebx
 8049b18:	89 5d 9c             	mov    %ebx,-0x64(%ebp)
 8049b1b:	8b 45 98             	mov    -0x68(%ebp),%eax
 8049b1e:	8b 55 9c             	mov    -0x64(%ebp),%edx
 8049b21:	89 c8                	mov    %ecx,%eax
 8049b23:	c1 e0 03             	shl    $0x3,%eax
 8049b26:	83 c0 0f             	add    $0xf,%eax
 8049b29:	83 c0 0f             	add    $0xf,%eax
 8049b2c:	c1 e8 04             	shr    $0x4,%eax
 8049b2f:	c1 e0 04             	shl    $0x4,%eax
 8049b32:	29 c4                	sub    %eax,%esp
 8049b34:	8d 44 24 0c          	lea    0xc(%esp),%eax
 8049b38:	83 c0 0f             	add    $0xf,%eax
 8049b3b:	c1 e8 04             	shr    $0x4,%eax
 8049b3e:	c1 e0 04             	shl    $0x4,%eax
 8049b41:	89 45 c4             	mov    %eax,-0x3c(%ebp)
 8049b44:	8b 45 b4             	mov    -0x4c(%ebp),%eax
 8049b47:	8b 00                	mov    (%eax),%eax
 8049b49:	89 45 d0             	mov    %eax,-0x30(%ebp)
 8049b4c:	8b 45 b0             	mov    -0x50(%ebp),%eax
 8049b4f:	8b 00                	mov    (%eax),%eax
 8049b51:	89 45 cc             	mov    %eax,-0x34(%ebp)
 8049b54:	c7 45 e0 00 00 00 00 	movl   $0x0,-0x20(%ebp)
 8049b5b:	e9 a5 00 00 00       	jmp    8049c05 <matrix_mult_inplace+0x194>
 8049b60:	c7 45 dc 00 00 00 00 	movl   $0x0,-0x24(%ebp)
 8049b67:	e9 86 00 00 00       	jmp    8049bf2 <matrix_mult_inplace+0x181>
 8049b6c:	8b 45 d0             	mov    -0x30(%ebp),%eax
 8049b6f:	8b 00                	mov    (%eax),%eax
 8049b71:	8b 55 e0             	mov    -0x20(%ebp),%edx
 8049b74:	c1 e2 03             	shl    $0x3,%edx
 8049b77:	01 d0                	add    %edx,%eax
 8049b79:	dd 00                	fldl   (%eax)
 8049b7b:	8b 45 dc             	mov    -0x24(%ebp),%eax
 8049b7e:	c1 e0 02             	shl    $0x2,%eax
 8049b81:	03 45 cc             	add    -0x34(%ebp),%eax
 8049b84:	8b 00                	mov    (%eax),%eax
 8049b86:	dd 00                	fldl   (%eax)
 8049b88:	de c9                	fmulp  %st,%st(1)
 8049b8a:	dd 5d b8             	fstpl  -0x48(%ebp)
 8049b8d:	c7 45 d8 01 00 00 00 	movl   $0x1,-0x28(%ebp)
 8049b94:	eb 38                	jmp    8049bce <matrix_mult_inplace+0x15d>
 8049b96:	8b 45 d8             	mov    -0x28(%ebp),%eax
 8049b99:	c1 e0 02             	shl    $0x2,%eax
 8049b9c:	03 45 d0             	add    -0x30(%ebp),%eax
 8049b9f:	8b 00                	mov    (%eax),%eax
 8049ba1:	8b 55 e0             	mov    -0x20(%ebp),%edx
 8049ba4:	c1 e2 03             	shl    $0x3,%edx
 8049ba7:	01 d0                	add    %edx,%eax
 8049ba9:	dd 00                	fldl   (%eax)
 8049bab:	8b 45 dc             	mov    -0x24(%ebp),%eax
 8049bae:	c1 e0 02             	shl    $0x2,%eax
 8049bb1:	03 45 cc             	add    -0x34(%ebp),%eax
 8049bb4:	8b 00                	mov    (%eax),%eax
 8049bb6:	8b 55 d8             	mov    -0x28(%ebp),%edx
 8049bb9:	c1 e2 03             	shl    $0x3,%edx
 8049bbc:	01 d0                	add    %edx,%eax
 8049bbe:	dd 00                	fldl   (%eax)
 8049bc0:	de c9                	fmulp  %st,%st(1)
 8049bc2:	dd 45 b8             	fldl   -0x48(%ebp)
 8049bc5:	de c1                	faddp  %st,%st(1)
 8049bc7:	dd 5d b8             	fstpl  -0x48(%ebp)
 8049bca:	83 45 d8 01          	addl   $0x1,-0x28(%ebp)
 8049bce:	8b 45 b4             	mov    -0x4c(%ebp),%eax
 8049bd1:	8b 40 08             	mov    0x8(%eax),%eax
 8049bd4:	3b 45 d8             	cmp    -0x28(%ebp),%eax
 8049bd7:	7f bd                	jg     8049b96 <matrix_mult_inplace+0x125>
 8049bd9:	8b 45 dc             	mov    -0x24(%ebp),%eax
 8049bdc:	0f af 45 d4          	imul   -0x2c(%ebp),%eax
 8049be0:	89 c2                	mov    %eax,%edx
 8049be2:	03 55 e0             	add    -0x20(%ebp),%edx
 8049be5:	8b 45 c4             	mov    -0x3c(%ebp),%eax
 8049be8:	dd 45 b8             	fldl   -0x48(%ebp)
 8049beb:	dd 1c d0             	fstpl  (%eax,%edx,8)
 8049bee:	83 45 dc 01          	addl   $0x1,-0x24(%ebp)
 8049bf2:	8b 45 b0             	mov    -0x50(%ebp),%eax
 8049bf5:	8b 40 08             	mov    0x8(%eax),%eax
 8049bf8:	3b 45 dc             	cmp    -0x24(%ebp),%eax
 8049bfb:	0f 8f 6b ff ff ff    	jg     8049b6c <matrix_mult_inplace+0xfb>
 8049c01:	83 45 e0 01          	addl   $0x1,-0x20(%ebp)
 8049c05:	8b 45 b4             	mov    -0x4c(%ebp),%eax
 8049c08:	8b 40 04             	mov    0x4(%eax),%eax
 8049c0b:	3b 45 e0             	cmp    -0x20(%ebp),%eax
 8049c0e:	0f 8f 4c ff ff ff    	jg     8049b60 <matrix_mult_inplace+0xef>
 8049c14:	89 c8                	mov    %ecx,%eax
 8049c16:	8d 0c c5 00 00 00 00 	lea    0x0(,%eax,8),%ecx
 8049c1d:	8b 55 c4             	mov    -0x3c(%ebp),%edx
 8049c20:	8b 45 cc             	mov    -0x34(%ebp),%eax
 8049c23:	8b 00                	mov    (%eax),%eax
 8049c25:	89 4c 24 08          	mov    %ecx,0x8(%esp)
 8049c29:	89 54 24 04          	mov    %edx,0x4(%esp)
 8049c2d:	89 04 24             	mov    %eax,(%esp)
 8049c30:	e8 0f ef ff ff       	call   8048b44 <memcpy@plt>
 8049c35:	89 fc                	mov    %edi,%esp
 8049c37:	8b 45 e4             	mov    -0x1c(%ebp),%eax
 8049c3a:	65 33 05 14 00 00 00 	xor    %gs:0x14,%eax
 8049c41:	74 05                	je     8049c48 <matrix_mult_inplace+0x1d7>
 8049c43:	e8 ac ef ff ff       	call   8048bf4 <__stack_chk_fail@plt>
 8049c48:	8d 65 f4             	lea    -0xc(%ebp),%esp
 8049c4b:	83 c4 00             	add    $0x0,%esp
 8049c4e:	5b                   	pop    %ebx
 8049c4f:	5e                   	pop    %esi
 8049c50:	5f                   	pop    %edi
 8049c51:	5d                   	pop    %ebp
 8049c52:	c3                   	ret    

08049c53 <matrix_copy>:
 8049c53:	55                   	push   %ebp
 8049c54:	89 e5                	mov    %esp,%ebp
 8049c56:	83 ec 18             	sub    $0x18,%esp
 8049c59:	8b 45 08             	mov    0x8(%ebp),%eax
 8049c5c:	8b 50 04             	mov    0x4(%eax),%edx
 8049c5f:	8b 45 0c             	mov    0xc(%ebp),%eax
 8049c62:	8b 40 04             	mov    0x4(%eax),%eax
 8049c65:	39 c2                	cmp    %eax,%edx
 8049c67:	75 10                	jne    8049c79 <matrix_copy+0x26>
 8049c69:	8b 45 08             	mov    0x8(%ebp),%eax
 8049c6c:	8b 50 08             	mov    0x8(%eax),%edx
 8049c6f:	8b 45 0c             	mov    0xc(%ebp),%eax
 8049c72:	8b 40 08             	mov    0x8(%eax),%eax
 8049c75:	39 c2                	cmp    %eax,%edx
 8049c77:	74 1f                	je     8049c98 <matrix_copy+0x45>
 8049c79:	8b 45 08             	mov    0x8(%ebp),%eax
 8049c7c:	8b 50 04             	mov    0x4(%eax),%edx
 8049c7f:	8b 45 08             	mov    0x8(%ebp),%eax
 8049c82:	8b 40 08             	mov    0x8(%eax),%eax
 8049c85:	89 54 24 08          	mov    %edx,0x8(%esp)
 8049c89:	89 44 24 04          	mov    %eax,0x4(%esp)
 8049c8d:	8b 45 0c             	mov    0xc(%ebp),%eax
 8049c90:	89 04 24             	mov    %eax,(%esp)
 8049c93:	e8 e2 f9 ff ff       	call   804967a <matrix_resize>
 8049c98:	8b 45 08             	mov    0x8(%ebp),%eax
 8049c9b:	8b 50 04             	mov    0x4(%eax),%edx
 8049c9e:	8b 45 08             	mov    0x8(%ebp),%eax
 8049ca1:	8b 40 08             	mov    0x8(%eax),%eax
 8049ca4:	0f af c2             	imul   %edx,%eax
 8049ca7:	8d 0c c5 00 00 00 00 	lea    0x0(,%eax,8),%ecx
 8049cae:	8b 45 08             	mov    0x8(%ebp),%eax
 8049cb1:	8b 00                	mov    (%eax),%eax
 8049cb3:	8b 10                	mov    (%eax),%edx
 8049cb5:	8b 45 0c             	mov    0xc(%ebp),%eax
 8049cb8:	8b 00                	mov    (%eax),%eax
 8049cba:	8b 00                	mov    (%eax),%eax
 8049cbc:	89 4c 24 08          	mov    %ecx,0x8(%esp)
 8049cc0:	89 54 24 04          	mov    %edx,0x4(%esp)
 8049cc4:	89 04 24             	mov    %eax,(%esp)
 8049cc7:	e8 78 ee ff ff       	call   8048b44 <memcpy@plt>
 8049ccc:	c9                   	leave  
 8049ccd:	c3                   	ret    

08049cce <matrix_mult_int_power>:
 8049cce:	55                   	push   %ebp
 8049ccf:	89 e5                	mov    %esp,%ebp
 8049cd1:	83 ec 28             	sub    $0x28,%esp
 8049cd4:	c7 45 f4 00 00 00 00 	movl   $0x0,-0xc(%ebp)
 8049cdb:	eb 16                	jmp    8049cf3 <matrix_mult_int_power+0x25>
 8049cdd:	8b 45 0c             	mov    0xc(%ebp),%eax
 8049ce0:	89 44 24 04          	mov    %eax,0x4(%esp)
 8049ce4:	8b 45 08             	mov    0x8(%ebp),%eax
 8049ce7:	89 04 24             	mov    %eax,(%esp)
 8049cea:	e8 82 fd ff ff       	call   8049a71 <matrix_mult_inplace>
 8049cef:	83 45 f4 01          	addl   $0x1,-0xc(%ebp)
 8049cf3:	8b 45 f4             	mov    -0xc(%ebp),%eax
 8049cf6:	3b 45 10             	cmp    0x10(%ebp),%eax
 8049cf9:	7c e2                	jl     8049cdd <matrix_mult_int_power+0xf>
 8049cfb:	c9                   	leave  
 8049cfc:	c3                   	ret    

08049cfd <matrix_make_translate>:
 8049cfd:	55                   	push   %ebp
 8049cfe:	89 e5                	mov    %esp,%ebp
 8049d00:	83 ec 1c             	sub    $0x1c,%esp
 8049d03:	8b 45 0c             	mov    0xc(%ebp),%eax
 8049d06:	89 45 f8             	mov    %eax,-0x8(%ebp)
 8049d09:	8b 45 10             	mov    0x10(%ebp),%eax
 8049d0c:	89 45 fc             	mov    %eax,-0x4(%ebp)
 8049d0f:	8b 45 14             	mov    0x14(%ebp),%eax
 8049d12:	89 45 f0             	mov    %eax,-0x10(%ebp)
 8049d15:	8b 45 18             	mov    0x18(%ebp),%eax
 8049d18:	89 45 f4             	mov    %eax,-0xc(%ebp)
 8049d1b:	8b 45 1c             	mov    0x1c(%ebp),%eax
 8049d1e:	89 45 e8             	mov    %eax,-0x18(%ebp)
 8049d21:	8b 45 20             	mov    0x20(%ebp),%eax
 8049d24:	89 45 ec             	mov    %eax,-0x14(%ebp)
 8049d27:	8b 45 08             	mov    0x8(%ebp),%eax
 8049d2a:	89 04 24             	mov    %eax,(%esp)
 8049d2d:	e8 6a fb ff ff       	call   804989c <matrix_make_ident>
 8049d32:	8b 45 08             	mov    0x8(%ebp),%eax
 8049d35:	8b 00                	mov    (%eax),%eax
 8049d37:	83 c0 0c             	add    $0xc,%eax
 8049d3a:	8b 00                	mov    (%eax),%eax
 8049d3c:	dd 45 f8             	fldl   -0x8(%ebp)
 8049d3f:	dd 18                	fstpl  (%eax)
 8049d41:	8b 45 08             	mov    0x8(%ebp),%eax
 8049d44:	8b 00                	mov    (%eax),%eax
 8049d46:	83 c0 0c             	add    $0xc,%eax
 8049d49:	8b 00                	mov    (%eax),%eax
 8049d4b:	83 c0 08             	add    $0x8,%eax
 8049d4e:	dd 45 f0             	fldl   -0x10(%ebp)
 8049d51:	dd 18                	fstpl  (%eax)
 8049d53:	8b 45 08             	mov    0x8(%ebp),%eax
 8049d56:	8b 00                	mov    (%eax),%eax
 8049d58:	83 c0 0c             	add    $0xc,%eax
 8049d5b:	8b 00                	mov    (%eax),%eax
 8049d5d:	83 c0 10             	add    $0x10,%eax
 8049d60:	dd 45 e8             	fldl   -0x18(%ebp)
 8049d63:	dd 18                	fstpl  (%eax)
 8049d65:	c9                   	leave  
 8049d66:	c3                   	ret    

08049d67 <matrix_make_scale>:
 8049d67:	55                   	push   %ebp
 8049d68:	89 e5                	mov    %esp,%ebp
 8049d6a:	83 ec 1c             	sub    $0x1c,%esp
 8049d6d:	8b 45 0c             	mov    0xc(%ebp),%eax
 8049d70:	89 45 f8             	mov    %eax,-0x8(%ebp)
 8049d73:	8b 45 10             	mov    0x10(%ebp),%eax
 8049d76:	89 45 fc             	mov    %eax,-0x4(%ebp)
 8049d79:	8b 45 14             	mov    0x14(%ebp),%eax
 8049d7c:	89 45 f0             	mov    %eax,-0x10(%ebp)
 8049d7f:	8b 45 18             	mov    0x18(%ebp),%eax
 8049d82:	89 45 f4             	mov    %eax,-0xc(%ebp)
 8049d85:	8b 45 1c             	mov    0x1c(%ebp),%eax
 8049d88:	89 45 e8             	mov    %eax,-0x18(%ebp)
 8049d8b:	8b 45 20             	mov    0x20(%ebp),%eax
 8049d8e:	89 45 ec             	mov    %eax,-0x14(%ebp)
 8049d91:	8b 45 08             	mov    0x8(%ebp),%eax
 8049d94:	89 04 24             	mov    %eax,(%esp)
 8049d97:	e8 00 fb ff ff       	call   804989c <matrix_make_ident>
 8049d9c:	8b 45 08             	mov    0x8(%ebp),%eax
 8049d9f:	8b 00                	mov    (%eax),%eax
 8049da1:	8b 00                	mov    (%eax),%eax
 8049da3:	dd 45 f8             	fldl   -0x8(%ebp)
 8049da6:	dd 18                	fstpl  (%eax)
 8049da8:	8b 45 08             	mov    0x8(%ebp),%eax
 8049dab:	8b 00                	mov    (%eax),%eax
 8049dad:	83 c0 04             	add    $0x4,%eax
 8049db0:	8b 00                	mov    (%eax),%eax
 8049db2:	83 c0 08             	add    $0x8,%eax
 8049db5:	dd 45 f0             	fldl   -0x10(%ebp)
 8049db8:	dd 18                	fstpl  (%eax)
 8049dba:	8b 45 08             	mov    0x8(%ebp),%eax
 8049dbd:	8b 00                	mov    (%eax),%eax
 8049dbf:	83 c0 08             	add    $0x8,%eax
 8049dc2:	8b 00                	mov    (%eax),%eax
 8049dc4:	83 c0 10             	add    $0x10,%eax
 8049dc7:	dd 45 e8             	fldl   -0x18(%ebp)
 8049dca:	dd 18                	fstpl  (%eax)
 8049dcc:	c9                   	leave  
 8049dcd:	c3                   	ret    

08049dce <matrix_make_rot_x>:
 8049dce:	55                   	push   %ebp
 8049dcf:	89 e5                	mov    %esp,%ebp
 8049dd1:	53                   	push   %ebx
 8049dd2:	83 ec 24             	sub    $0x24,%esp
 8049dd5:	8b 45 0c             	mov    0xc(%ebp),%eax
 8049dd8:	89 45 f0             	mov    %eax,-0x10(%ebp)
 8049ddb:	8b 45 10             	mov    0x10(%ebp),%eax
 8049dde:	89 45 f4             	mov    %eax,-0xc(%ebp)
 8049de1:	8b 45 08             	mov    0x8(%ebp),%eax
 8049de4:	89 04 24             	mov    %eax,(%esp)
 8049de7:	e8 b0 fa ff ff       	call   804989c <matrix_make_ident>
 8049dec:	8b 45 08             	mov    0x8(%ebp),%eax
 8049def:	8b 00                	mov    (%eax),%eax
 8049df1:	83 c0 04             	add    $0x4,%eax
 8049df4:	8b 00                	mov    (%eax),%eax
 8049df6:	8d 58 08             	lea    0x8(%eax),%ebx
 8049df9:	dd 45 f0             	fldl   -0x10(%ebp)
 8049dfc:	dd 05 30 ea 04 08    	fldl   0x804ea30
 8049e02:	de c9                	fmulp  %st,%st(1)
 8049e04:	dd 05 38 ea 04 08    	fldl   0x804ea38
 8049e0a:	de f9                	fdivrp %st,%st(1)
 8049e0c:	dd 1c 24             	fstpl  (%esp)
 8049e0f:	e8 50 ed ff ff       	call   8048b64 <cos@plt>
 8049e14:	dd 1b                	fstpl  (%ebx)
 8049e16:	8b 45 08             	mov    0x8(%ebp),%eax
 8049e19:	8b 00                	mov    (%eax),%eax
 8049e1b:	83 c0 08             	add    $0x8,%eax
 8049e1e:	8b 00                	mov    (%eax),%eax
 8049e20:	8d 58 08             	lea    0x8(%eax),%ebx
 8049e23:	dd 45 f0             	fldl   -0x10(%ebp)
 8049e26:	dd 05 30 ea 04 08    	fldl   0x804ea30
 8049e2c:	de c9                	fmulp  %st,%st(1)
 8049e2e:	dd 05 40 ea 04 08    	fldl   0x804ea40
 8049e34:	de f9                	fdivrp %st,%st(1)
 8049e36:	dd 1c 24             	fstpl  (%esp)
 8049e39:	e8 36 ee ff ff       	call   8048c74 <sin@plt>
 8049e3e:	dd 1b                	fstpl  (%ebx)
 8049e40:	8b 45 08             	mov    0x8(%ebp),%eax
 8049e43:	8b 00                	mov    (%eax),%eax
 8049e45:	83 c0 04             	add    $0x4,%eax
 8049e48:	8b 00                	mov    (%eax),%eax
 8049e4a:	8d 58 10             	lea    0x10(%eax),%ebx
 8049e4d:	dd 45 f0             	fldl   -0x10(%ebp)
 8049e50:	dd 05 30 ea 04 08    	fldl   0x804ea30
 8049e56:	de c9                	fmulp  %st,%st(1)
 8049e58:	dd 05 38 ea 04 08    	fldl   0x804ea38
 8049e5e:	de f9                	fdivrp %st,%st(1)
 8049e60:	dd 1c 24             	fstpl  (%esp)
 8049e63:	e8 0c ee ff ff       	call   8048c74 <sin@plt>
 8049e68:	dd 1b                	fstpl  (%ebx)
 8049e6a:	8b 45 08             	mov    0x8(%ebp),%eax
 8049e6d:	8b 00                	mov    (%eax),%eax
 8049e6f:	83 c0 08             	add    $0x8,%eax
 8049e72:	8b 00                	mov    (%eax),%eax
 8049e74:	8d 58 10             	lea    0x10(%eax),%ebx
 8049e77:	dd 45 f0             	fldl   -0x10(%ebp)
 8049e7a:	dd 05 30 ea 04 08    	fldl   0x804ea30
 8049e80:	de c9                	fmulp  %st,%st(1)
 8049e82:	dd 05 38 ea 04 08    	fldl   0x804ea38
 8049e88:	de f9                	fdivrp %st,%st(1)
 8049e8a:	dd 1c 24             	fstpl  (%esp)
 8049e8d:	e8 d2 ec ff ff       	call   8048b64 <cos@plt>
 8049e92:	dd 1b                	fstpl  (%ebx)
 8049e94:	83 c4 24             	add    $0x24,%esp
 8049e97:	5b                   	pop    %ebx
 8049e98:	5d                   	pop    %ebp
 8049e99:	c3                   	ret    

08049e9a <matrix_make_rot_y>:
 8049e9a:	55                   	push   %ebp
 8049e9b:	89 e5                	mov    %esp,%ebp
 8049e9d:	53                   	push   %ebx
 8049e9e:	83 ec 24             	sub    $0x24,%esp
 8049ea1:	8b 45 0c             	mov    0xc(%ebp),%eax
 8049ea4:	89 45 f0             	mov    %eax,-0x10(%ebp)
 8049ea7:	8b 45 10             	mov    0x10(%ebp),%eax
 8049eaa:	89 45 f4             	mov    %eax,-0xc(%ebp)
 8049ead:	8b 45 08             	mov    0x8(%ebp),%eax
 8049eb0:	89 04 24             	mov    %eax,(%esp)
 8049eb3:	e8 e4 f9 ff ff       	call   804989c <matrix_make_ident>
 8049eb8:	8b 45 08             	mov    0x8(%ebp),%eax
 8049ebb:	8b 00                	mov    (%eax),%eax
 8049ebd:	8b 18                	mov    (%eax),%ebx
 8049ebf:	dd 45 f0             	fldl   -0x10(%ebp)
 8049ec2:	dd 05 30 ea 04 08    	fldl   0x804ea30
 8049ec8:	de c9                	fmulp  %st,%st(1)
 8049eca:	dd 05 38 ea 04 08    	fldl   0x804ea38
 8049ed0:	de f9                	fdivrp %st,%st(1)
 8049ed2:	dd 1c 24             	fstpl  (%esp)
 8049ed5:	e8 8a ec ff ff       	call   8048b64 <cos@plt>
 8049eda:	dd 1b                	fstpl  (%ebx)
 8049edc:	8b 45 08             	mov    0x8(%ebp),%eax
 8049edf:	8b 00                	mov    (%eax),%eax
 8049ee1:	83 c0 08             	add    $0x8,%eax
 8049ee4:	8b 18                	mov    (%eax),%ebx
 8049ee6:	dd 45 f0             	fldl   -0x10(%ebp)
 8049ee9:	dd 05 30 ea 04 08    	fldl   0x804ea30
 8049eef:	de c9                	fmulp  %st,%st(1)
 8049ef1:	dd 05 40 ea 04 08    	fldl   0x804ea40
 8049ef7:	de f9                	fdivrp %st,%st(1)
 8049ef9:	dd 1c 24             	fstpl  (%esp)
 8049efc:	e8 73 ed ff ff       	call   8048c74 <sin@plt>
 8049f01:	dd 1b                	fstpl  (%ebx)
 8049f03:	8b 45 08             	mov    0x8(%ebp),%eax
 8049f06:	8b 00                	mov    (%eax),%eax
 8049f08:	8b 00                	mov    (%eax),%eax
 8049f0a:	8d 58 10             	lea    0x10(%eax),%ebx
 8049f0d:	dd 45 f0             	fldl   -0x10(%ebp)
 8049f10:	dd 05 30 ea 04 08    	fldl   0x804ea30
 8049f16:	de c9                	fmulp  %st,%st(1)
 8049f18:	dd 05 38 ea 04 08    	fldl   0x804ea38
 8049f1e:	de f9                	fdivrp %st,%st(1)
 8049f20:	dd 1c 24             	fstpl  (%esp)
 8049f23:	e8 4c ed ff ff       	call   8048c74 <sin@plt>
 8049f28:	dd 1b                	fstpl  (%ebx)
 8049f2a:	8b 45 08             	mov    0x8(%ebp),%eax
 8049f2d:	8b 00                	mov    (%eax),%eax
 8049f2f:	83 c0 08             	add    $0x8,%eax
 8049f32:	8b 00                	mov    (%eax),%eax
 8049f34:	8d 58 10             	lea    0x10(%eax),%ebx
 8049f37:	dd 45 f0             	fldl   -0x10(%ebp)
 8049f3a:	dd 05 30 ea 04 08    	fldl   0x804ea30
 8049f40:	de c9                	fmulp  %st,%st(1)
 8049f42:	dd 05 38 ea 04 08    	fldl   0x804ea38
 8049f48:	de f9                	fdivrp %st,%st(1)
 8049f4a:	dd 1c 24             	fstpl  (%esp)
 8049f4d:	e8 12 ec ff ff       	call   8048b64 <cos@plt>
 8049f52:	dd 1b                	fstpl  (%ebx)
 8049f54:	83 c4 24             	add    $0x24,%esp
 8049f57:	5b                   	pop    %ebx
 8049f58:	5d                   	pop    %ebp
 8049f59:	c3                   	ret    

08049f5a <matrix_make_rot_z>:
 8049f5a:	55                   	push   %ebp
 8049f5b:	89 e5                	mov    %esp,%ebp
 8049f5d:	53                   	push   %ebx
 8049f5e:	83 ec 24             	sub    $0x24,%esp
 8049f61:	8b 45 0c             	mov    0xc(%ebp),%eax
 8049f64:	89 45 f0             	mov    %eax,-0x10(%ebp)
 8049f67:	8b 45 10             	mov    0x10(%ebp),%eax
 8049f6a:	89 45 f4             	mov    %eax,-0xc(%ebp)
 8049f6d:	8b 45 08             	mov    0x8(%ebp),%eax
 8049f70:	89 04 24             	mov    %eax,(%esp)
 8049f73:	e8 24 f9 ff ff       	call   804989c <matrix_make_ident>
 8049f78:	8b 45 08             	mov    0x8(%ebp),%eax
 8049f7b:	8b 00                	mov    (%eax),%eax
 8049f7d:	8b 18                	mov    (%eax),%ebx
 8049f7f:	dd 45 f0             	fldl   -0x10(%ebp)
 8049f82:	dd 05 30 ea 04 08    	fldl   0x804ea30
 8049f88:	de c9                	fmulp  %st,%st(1)
 8049f8a:	dd 05 38 ea 04 08    	fldl   0x804ea38
 8049f90:	de f9                	fdivrp %st,%st(1)
 8049f92:	dd 1c 24             	fstpl  (%esp)
 8049f95:	e8 ca eb ff ff       	call   8048b64 <cos@plt>
 8049f9a:	dd 1b                	fstpl  (%ebx)
 8049f9c:	8b 45 08             	mov    0x8(%ebp),%eax
 8049f9f:	8b 00                	mov    (%eax),%eax
 8049fa1:	83 c0 04             	add    $0x4,%eax
 8049fa4:	8b 18                	mov    (%eax),%ebx
 8049fa6:	dd 45 f0             	fldl   -0x10(%ebp)
 8049fa9:	dd 05 30 ea 04 08    	fldl   0x804ea30
 8049faf:	de c9                	fmulp  %st,%st(1)
 8049fb1:	dd 05 40 ea 04 08    	fldl   0x804ea40
 8049fb7:	de f9                	fdivrp %st,%st(1)
 8049fb9:	dd 1c 24             	fstpl  (%esp)
 8049fbc:	e8 b3 ec ff ff       	call   8048c74 <sin@plt>
 8049fc1:	dd 1b                	fstpl  (%ebx)
 8049fc3:	8b 45 08             	mov    0x8(%ebp),%eax
 8049fc6:	8b 00                	mov    (%eax),%eax
 8049fc8:	8b 00                	mov    (%eax),%eax
 8049fca:	8d 58 08             	lea    0x8(%eax),%ebx
 8049fcd:	dd 45 f0             	fldl   -0x10(%ebp)
 8049fd0:	dd 05 30 ea 04 08    	fldl   0x804ea30
 8049fd6:	de c9                	fmulp  %st,%st(1)
 8049fd8:	dd 05 38 ea 04 08    	fldl   0x804ea38
 8049fde:	de f9                	fdivrp %st,%st(1)
 8049fe0:	dd 1c 24             	fstpl  (%esp)
 8049fe3:	e8 8c ec ff ff       	call   8048c74 <sin@plt>
 8049fe8:	dd 1b                	fstpl  (%ebx)
 8049fea:	8b 45 08             	mov    0x8(%ebp),%eax
 8049fed:	8b 00                	mov    (%eax),%eax
 8049fef:	83 c0 04             	add    $0x4,%eax
 8049ff2:	8b 00                	mov    (%eax),%eax
 8049ff4:	8d 58 08             	lea    0x8(%eax),%ebx
 8049ff7:	dd 45 f0             	fldl   -0x10(%ebp)
 8049ffa:	dd 05 30 ea 04 08    	fldl   0x804ea30
 804a000:	de c9                	fmulp  %st,%st(1)
 804a002:	dd 05 38 ea 04 08    	fldl   0x804ea38
 804a008:	de f9                	fdivrp %st,%st(1)
 804a00a:	dd 1c 24             	fstpl  (%esp)
 804a00d:	e8 52 eb ff ff       	call   8048b64 <cos@plt>
 804a012:	dd 1b                	fstpl  (%ebx)
 804a014:	83 c4 24             	add    $0x24,%esp
 804a017:	5b                   	pop    %ebx
 804a018:	5d                   	pop    %ebp
 804a019:	c3                   	ret    

0804a01a <matrix_make_transform>:
 804a01a:	55                   	push   %ebp
 804a01b:	89 e5                	mov    %esp,%ebp
 804a01d:	83 ec 58             	sub    $0x58,%esp
 804a020:	8b 45 0c             	mov    0xc(%ebp),%eax
 804a023:	89 45 f0             	mov    %eax,-0x10(%ebp)
 804a026:	8b 45 10             	mov    0x10(%ebp),%eax
 804a029:	89 45 f4             	mov    %eax,-0xc(%ebp)
 804a02c:	8b 45 14             	mov    0x14(%ebp),%eax
 804a02f:	89 45 e8             	mov    %eax,-0x18(%ebp)
 804a032:	8b 45 18             	mov    0x18(%ebp),%eax
 804a035:	89 45 ec             	mov    %eax,-0x14(%ebp)
 804a038:	8b 45 1c             	mov    0x1c(%ebp),%eax
 804a03b:	89 45 e0             	mov    %eax,-0x20(%ebp)
 804a03e:	8b 45 20             	mov    0x20(%ebp),%eax
 804a041:	89 45 e4             	mov    %eax,-0x1c(%ebp)
 804a044:	8b 45 24             	mov    0x24(%ebp),%eax
 804a047:	89 45 d8             	mov    %eax,-0x28(%ebp)
 804a04a:	8b 45 28             	mov    0x28(%ebp),%eax
 804a04d:	89 45 dc             	mov    %eax,-0x24(%ebp)
 804a050:	8b 45 2c             	mov    0x2c(%ebp),%eax
 804a053:	89 45 d0             	mov    %eax,-0x30(%ebp)
 804a056:	8b 45 30             	mov    0x30(%ebp),%eax
 804a059:	89 45 d4             	mov    %eax,-0x2c(%ebp)
 804a05c:	8b 45 34             	mov    0x34(%ebp),%eax
 804a05f:	89 45 c8             	mov    %eax,-0x38(%ebp)
 804a062:	8b 45 38             	mov    0x38(%ebp),%eax
 804a065:	89 45 cc             	mov    %eax,-0x34(%ebp)
 804a068:	a1 f0 00 05 08       	mov    0x80500f0,%eax
 804a06d:	85 c0                	test   %eax,%eax
 804a06f:	75 19                	jne    804a08a <matrix_make_transform+0x70>
 804a071:	c7 44 24 04 04 00 00 	movl   $0x4,0x4(%esp)
 804a078:	00 
 804a079:	c7 04 24 04 00 00 00 	movl   $0x4,(%esp)
 804a080:	e8 63 f5 ff ff       	call   80495e8 <matrix_new>
 804a085:	a3 f0 00 05 08       	mov    %eax,0x80500f0
 804a08a:	dd 45 c8             	fldl   -0x38(%ebp)
 804a08d:	dd 5c 24 04          	fstpl  0x4(%esp)
 804a091:	8b 45 08             	mov    0x8(%ebp),%eax
 804a094:	89 04 24             	mov    %eax,(%esp)
 804a097:	e8 32 fd ff ff       	call   8049dce <matrix_make_rot_x>
 804a09c:	a1 f0 00 05 08       	mov    0x80500f0,%eax
 804a0a1:	dd 45 d0             	fldl   -0x30(%ebp)
 804a0a4:	dd 5c 24 04          	fstpl  0x4(%esp)
 804a0a8:	89 04 24             	mov    %eax,(%esp)
 804a0ab:	e8 ea fd ff ff       	call   8049e9a <matrix_make_rot_y>
 804a0b0:	a1 f0 00 05 08       	mov    0x80500f0,%eax
 804a0b5:	8b 55 08             	mov    0x8(%ebp),%edx
 804a0b8:	89 54 24 04          	mov    %edx,0x4(%esp)
 804a0bc:	89 04 24             	mov    %eax,(%esp)
 804a0bf:	e8 ad f9 ff ff       	call   8049a71 <matrix_mult_inplace>
 804a0c4:	a1 f0 00 05 08       	mov    0x80500f0,%eax
 804a0c9:	dd 45 d8             	fldl   -0x28(%ebp)
 804a0cc:	dd 5c 24 04          	fstpl  0x4(%esp)
 804a0d0:	89 04 24             	mov    %eax,(%esp)
 804a0d3:	e8 82 fe ff ff       	call   8049f5a <matrix_make_rot_z>
 804a0d8:	a1 f0 00 05 08       	mov    0x80500f0,%eax
 804a0dd:	8b 55 08             	mov    0x8(%ebp),%edx
 804a0e0:	89 54 24 04          	mov    %edx,0x4(%esp)
 804a0e4:	89 04 24             	mov    %eax,(%esp)
 804a0e7:	e8 85 f9 ff ff       	call   8049a71 <matrix_mult_inplace>
 804a0ec:	a1 f0 00 05 08       	mov    0x80500f0,%eax
 804a0f1:	dd 45 e0             	fldl   -0x20(%ebp)
 804a0f4:	dd 5c 24 14          	fstpl  0x14(%esp)
 804a0f8:	dd 45 e8             	fldl   -0x18(%ebp)
 804a0fb:	dd 5c 24 0c          	fstpl  0xc(%esp)
 804a0ff:	dd 45 f0             	fldl   -0x10(%ebp)
 804a102:	dd 5c 24 04          	fstpl  0x4(%esp)
 804a106:	89 04 24             	mov    %eax,(%esp)
 804a109:	e8 ef fb ff ff       	call   8049cfd <matrix_make_translate>
 804a10e:	a1 f0 00 05 08       	mov    0x80500f0,%eax
 804a113:	8b 55 08             	mov    0x8(%ebp),%edx
 804a116:	89 54 24 04          	mov    %edx,0x4(%esp)
 804a11a:	89 04 24             	mov    %eax,(%esp)
 804a11d:	e8 4f f9 ff ff       	call   8049a71 <matrix_mult_inplace>
 804a122:	c9                   	leave  
 804a123:	c3                   	ret    

0804a124 <matrix_make_tform_inv>:
 804a124:	55                   	push   %ebp
 804a125:	89 e5                	mov    %esp,%ebp
 804a127:	83 ec 58             	sub    $0x58,%esp
 804a12a:	8b 45 0c             	mov    0xc(%ebp),%eax
 804a12d:	89 45 f0             	mov    %eax,-0x10(%ebp)
 804a130:	8b 45 10             	mov    0x10(%ebp),%eax
 804a133:	89 45 f4             	mov    %eax,-0xc(%ebp)
 804a136:	8b 45 14             	mov    0x14(%ebp),%eax
 804a139:	89 45 e8             	mov    %eax,-0x18(%ebp)
 804a13c:	8b 45 18             	mov    0x18(%ebp),%eax
 804a13f:	89 45 ec             	mov    %eax,-0x14(%ebp)
 804a142:	8b 45 1c             	mov    0x1c(%ebp),%eax
 804a145:	89 45 e0             	mov    %eax,-0x20(%ebp)
 804a148:	8b 45 20             	mov    0x20(%ebp),%eax
 804a14b:	89 45 e4             	mov    %eax,-0x1c(%ebp)
 804a14e:	8b 45 24             	mov    0x24(%ebp),%eax
 804a151:	89 45 d8             	mov    %eax,-0x28(%ebp)
 804a154:	8b 45 28             	mov    0x28(%ebp),%eax
 804a157:	89 45 dc             	mov    %eax,-0x24(%ebp)
 804a15a:	8b 45 2c             	mov    0x2c(%ebp),%eax
 804a15d:	89 45 d0             	mov    %eax,-0x30(%ebp)
 804a160:	8b 45 30             	mov    0x30(%ebp),%eax
 804a163:	89 45 d4             	mov    %eax,-0x2c(%ebp)
 804a166:	8b 45 34             	mov    0x34(%ebp),%eax
 804a169:	89 45 c8             	mov    %eax,-0x38(%ebp)
 804a16c:	8b 45 38             	mov    0x38(%ebp),%eax
 804a16f:	89 45 cc             	mov    %eax,-0x34(%ebp)
 804a172:	a1 ec 00 05 08       	mov    0x80500ec,%eax
 804a177:	85 c0                	test   %eax,%eax
 804a179:	75 19                	jne    804a194 <matrix_make_tform_inv+0x70>
 804a17b:	c7 44 24 04 04 00 00 	movl   $0x4,0x4(%esp)
 804a182:	00 
 804a183:	c7 04 24 04 00 00 00 	movl   $0x4,(%esp)
 804a18a:	e8 59 f4 ff ff       	call   80495e8 <matrix_new>
 804a18f:	a3 ec 00 05 08       	mov    %eax,0x80500ec
 804a194:	dd 45 e0             	fldl   -0x20(%ebp)
 804a197:	d9 e0                	fchs   
 804a199:	dd 45 e8             	fldl   -0x18(%ebp)
 804a19c:	d9 e0                	fchs   
 804a19e:	dd 45 f0             	fldl   -0x10(%ebp)
 804a1a1:	d9 e0                	fchs   
 804a1a3:	d9 ca                	fxch   %st(2)
 804a1a5:	dd 5c 24 14          	fstpl  0x14(%esp)
 804a1a9:	dd 5c 24 0c          	fstpl  0xc(%esp)
 804a1ad:	dd 5c 24 04          	fstpl  0x4(%esp)
 804a1b1:	8b 45 08             	mov    0x8(%ebp),%eax
 804a1b4:	89 04 24             	mov    %eax,(%esp)
 804a1b7:	e8 41 fb ff ff       	call   8049cfd <matrix_make_translate>
 804a1bc:	dd 45 d8             	fldl   -0x28(%ebp)
 804a1bf:	d9 e0                	fchs   
 804a1c1:	a1 ec 00 05 08       	mov    0x80500ec,%eax
 804a1c6:	dd 5c 24 04          	fstpl  0x4(%esp)
 804a1ca:	89 04 24             	mov    %eax,(%esp)
 804a1cd:	e8 88 fd ff ff       	call   8049f5a <matrix_make_rot_z>
 804a1d2:	a1 ec 00 05 08       	mov    0x80500ec,%eax
 804a1d7:	8b 55 08             	mov    0x8(%ebp),%edx
 804a1da:	89 54 24 04          	mov    %edx,0x4(%esp)
 804a1de:	89 04 24             	mov    %eax,(%esp)
 804a1e1:	e8 8b f8 ff ff       	call   8049a71 <matrix_mult_inplace>
 804a1e6:	dd 45 d0             	fldl   -0x30(%ebp)
 804a1e9:	d9 e0                	fchs   
 804a1eb:	a1 ec 00 05 08       	mov    0x80500ec,%eax
 804a1f0:	dd 5c 24 04          	fstpl  0x4(%esp)
 804a1f4:	89 04 24             	mov    %eax,(%esp)
 804a1f7:	e8 9e fc ff ff       	call   8049e9a <matrix_make_rot_y>
 804a1fc:	a1 ec 00 05 08       	mov    0x80500ec,%eax
 804a201:	8b 55 08             	mov    0x8(%ebp),%edx
 804a204:	89 54 24 04          	mov    %edx,0x4(%esp)
 804a208:	89 04 24             	mov    %eax,(%esp)
 804a20b:	e8 61 f8 ff ff       	call   8049a71 <matrix_mult_inplace>
 804a210:	dd 45 c8             	fldl   -0x38(%ebp)
 804a213:	d9 e0                	fchs   
 804a215:	a1 ec 00 05 08       	mov    0x80500ec,%eax
 804a21a:	dd 5c 24 04          	fstpl  0x4(%esp)
 804a21e:	89 04 24             	mov    %eax,(%esp)
 804a221:	e8 a8 fb ff ff       	call   8049dce <matrix_make_rot_x>
 804a226:	a1 ec 00 05 08       	mov    0x80500ec,%eax
 804a22b:	8b 55 08             	mov    0x8(%ebp),%edx
 804a22e:	89 54 24 04          	mov    %edx,0x4(%esp)
 804a232:	89 04 24             	mov    %eax,(%esp)
 804a235:	e8 37 f8 ff ff       	call   8049a71 <matrix_mult_inplace>
 804a23a:	c9                   	leave  
 804a23b:	c3                   	ret    

0804a23c <matrix_addpoint>:
 804a23c:	55                   	push   %ebp
 804a23d:	89 e5                	mov    %esp,%ebp
 804a23f:	83 ec 18             	sub    $0x18,%esp
 804a242:	8b 45 08             	mov    0x8(%ebp),%eax
 804a245:	8b 50 0c             	mov    0xc(%eax),%edx
 804a248:	8b 45 08             	mov    0x8(%ebp),%eax
 804a24b:	8b 40 08             	mov    0x8(%eax),%eax
 804a24e:	39 c2                	cmp    %eax,%edx
 804a250:	75 07                	jne    804a259 <matrix_addpoint+0x1d>
 804a252:	b8 00 00 00 00       	mov    $0x0,%eax
 804a257:	eb 59                	jmp    804a2b2 <matrix_addpoint+0x76>
 804a259:	8b 45 08             	mov    0x8(%ebp),%eax
 804a25c:	8b 10                	mov    (%eax),%edx
 804a25e:	8b 45 08             	mov    0x8(%ebp),%eax
 804a261:	8b 40 0c             	mov    0xc(%eax),%eax
 804a264:	c1 e0 02             	shl    $0x2,%eax
 804a267:	8d 04 02             	lea    (%edx,%eax,1),%eax
 804a26a:	8b 00                	mov    (%eax),%eax
 804a26c:	c7 44 24 08 18 00 00 	movl   $0x18,0x8(%esp)
 804a273:	00 
 804a274:	8b 55 0c             	mov    0xc(%ebp),%edx
 804a277:	89 54 24 04          	mov    %edx,0x4(%esp)
 804a27b:	89 04 24             	mov    %eax,(%esp)
 804a27e:	e8 c1 e8 ff ff       	call   8048b44 <memcpy@plt>
 804a283:	8b 45 08             	mov    0x8(%ebp),%eax
 804a286:	8b 10                	mov    (%eax),%edx
 804a288:	8b 45 08             	mov    0x8(%ebp),%eax
 804a28b:	8b 40 0c             	mov    0xc(%eax),%eax
 804a28e:	c1 e0 02             	shl    $0x2,%eax
 804a291:	8d 04 02             	lea    (%edx,%eax,1),%eax
 804a294:	8b 00                	mov    (%eax),%eax
 804a296:	83 c0 18             	add    $0x18,%eax
 804a299:	d9 e8                	fld1   
 804a29b:	dd 18                	fstpl  (%eax)
 804a29d:	8b 45 08             	mov    0x8(%ebp),%eax
 804a2a0:	8b 40 0c             	mov    0xc(%eax),%eax
 804a2a3:	8d 50 01             	lea    0x1(%eax),%edx
 804a2a6:	8b 45 08             	mov    0x8(%ebp),%eax
 804a2a9:	89 50 0c             	mov    %edx,0xc(%eax)
 804a2ac:	8b 45 08             	mov    0x8(%ebp),%eax
 804a2af:	8b 40 0c             	mov    0xc(%eax),%eax
 804a2b2:	c9                   	leave  
 804a2b3:	c3                   	ret    

0804a2b4 <matrix_addpoint_resize>:
 804a2b4:	55                   	push   %ebp
 804a2b5:	89 e5                	mov    %esp,%ebp
 804a2b7:	83 ec 18             	sub    $0x18,%esp
 804a2ba:	8b 45 08             	mov    0x8(%ebp),%eax
 804a2bd:	8b 50 0c             	mov    0xc(%eax),%edx
 804a2c0:	8b 45 08             	mov    0x8(%ebp),%eax
 804a2c3:	8b 40 08             	mov    0x8(%eax),%eax
 804a2c6:	39 c2                	cmp    %eax,%edx
 804a2c8:	75 22                	jne    804a2ec <matrix_addpoint_resize+0x38>
 804a2ca:	8b 45 08             	mov    0x8(%ebp),%eax
 804a2cd:	8b 40 04             	mov    0x4(%eax),%eax
 804a2d0:	8b 55 08             	mov    0x8(%ebp),%edx
 804a2d3:	8b 52 0c             	mov    0xc(%edx),%edx
 804a2d6:	83 c2 01             	add    $0x1,%edx
 804a2d9:	89 44 24 08          	mov    %eax,0x8(%esp)
 804a2dd:	89 54 24 04          	mov    %edx,0x4(%esp)
 804a2e1:	8b 45 08             	mov    0x8(%ebp),%eax
 804a2e4:	89 04 24             	mov    %eax,(%esp)
 804a2e7:	e8 8e f3 ff ff       	call   804967a <matrix_resize>
 804a2ec:	8b 45 0c             	mov    0xc(%ebp),%eax
 804a2ef:	89 44 24 04          	mov    %eax,0x4(%esp)
 804a2f3:	8b 45 08             	mov    0x8(%ebp),%eax
 804a2f6:	89 04 24             	mov    %eax,(%esp)
 804a2f9:	e8 3e ff ff ff       	call   804a23c <matrix_addpoint>
 804a2fe:	c9                   	leave  
 804a2ff:	c3                   	ret    

0804a300 <matrix_addpoint_fromcoords>:
 804a300:	55                   	push   %ebp
 804a301:	89 e5                	mov    %esp,%ebp
 804a303:	83 ec 18             	sub    $0x18,%esp
 804a306:	8b 45 0c             	mov    0xc(%ebp),%eax
 804a309:	89 45 f8             	mov    %eax,-0x8(%ebp)
 804a30c:	8b 45 10             	mov    0x10(%ebp),%eax
 804a30f:	89 45 fc             	mov    %eax,-0x4(%ebp)
 804a312:	8b 45 14             	mov    0x14(%ebp),%eax
 804a315:	89 45 f0             	mov    %eax,-0x10(%ebp)
 804a318:	8b 45 18             	mov    0x18(%ebp),%eax
 804a31b:	89 45 f4             	mov    %eax,-0xc(%ebp)
 804a31e:	8b 45 1c             	mov    0x1c(%ebp),%eax
 804a321:	89 45 e8             	mov    %eax,-0x18(%ebp)
 804a324:	8b 45 20             	mov    0x20(%ebp),%eax
 804a327:	89 45 ec             	mov    %eax,-0x14(%ebp)
 804a32a:	8b 45 08             	mov    0x8(%ebp),%eax
 804a32d:	8b 50 0c             	mov    0xc(%eax),%edx
 804a330:	8b 45 08             	mov    0x8(%ebp),%eax
 804a333:	8b 40 08             	mov    0x8(%eax),%eax
 804a336:	39 c2                	cmp    %eax,%edx
 804a338:	7c 07                	jl     804a341 <matrix_addpoint_fromcoords+0x41>
 804a33a:	b8 00 00 00 00       	mov    $0x0,%eax
 804a33f:	eb 7d                	jmp    804a3be <matrix_addpoint_fromcoords+0xbe>
 804a341:	8b 45 08             	mov    0x8(%ebp),%eax
 804a344:	8b 10                	mov    (%eax),%edx
 804a346:	8b 45 08             	mov    0x8(%ebp),%eax
 804a349:	8b 40 0c             	mov    0xc(%eax),%eax
 804a34c:	c1 e0 02             	shl    $0x2,%eax
 804a34f:	8d 04 02             	lea    (%edx,%eax,1),%eax
 804a352:	8b 00                	mov    (%eax),%eax
 804a354:	dd 45 f8             	fldl   -0x8(%ebp)
 804a357:	dd 18                	fstpl  (%eax)
 804a359:	8b 45 08             	mov    0x8(%ebp),%eax
 804a35c:	8b 10                	mov    (%eax),%edx
 804a35e:	8b 45 08             	mov    0x8(%ebp),%eax
 804a361:	8b 40 0c             	mov    0xc(%eax),%eax
 804a364:	c1 e0 02             	shl    $0x2,%eax
 804a367:	8d 04 02             	lea    (%edx,%eax,1),%eax
 804a36a:	8b 00                	mov    (%eax),%eax
 804a36c:	83 c0 08             	add    $0x8,%eax
 804a36f:	dd 45 f0             	fldl   -0x10(%ebp)
 804a372:	dd 18                	fstpl  (%eax)
 804a374:	8b 45 08             	mov    0x8(%ebp),%eax
 804a377:	8b 10                	mov    (%eax),%edx
 804a379:	8b 45 08             	mov    0x8(%ebp),%eax
 804a37c:	8b 40 0c             	mov    0xc(%eax),%eax
 804a37f:	c1 e0 02             	shl    $0x2,%eax
 804a382:	8d 04 02             	lea    (%edx,%eax,1),%eax
 804a385:	8b 00                	mov    (%eax),%eax
 804a387:	83 c0 10             	add    $0x10,%eax
 804a38a:	dd 45 e8             	fldl   -0x18(%ebp)
 804a38d:	dd 18                	fstpl  (%eax)
 804a38f:	8b 45 08             	mov    0x8(%ebp),%eax
 804a392:	8b 10                	mov    (%eax),%edx
 804a394:	8b 45 08             	mov    0x8(%ebp),%eax
 804a397:	8b 40 0c             	mov    0xc(%eax),%eax
 804a39a:	c1 e0 02             	shl    $0x2,%eax
 804a39d:	8d 04 02             	lea    (%edx,%eax,1),%eax
 804a3a0:	8b 00                	mov    (%eax),%eax
 804a3a2:	83 c0 18             	add    $0x18,%eax
 804a3a5:	d9 e8                	fld1   
 804a3a7:	dd 18                	fstpl  (%eax)
 804a3a9:	8b 45 08             	mov    0x8(%ebp),%eax
 804a3ac:	8b 40 0c             	mov    0xc(%eax),%eax
 804a3af:	8d 50 01             	lea    0x1(%eax),%edx
 804a3b2:	8b 45 08             	mov    0x8(%ebp),%eax
 804a3b5:	89 50 0c             	mov    %edx,0xc(%eax)
 804a3b8:	8b 45 08             	mov    0x8(%ebp),%eax
 804a3bb:	8b 40 0c             	mov    0xc(%eax),%eax
 804a3be:	c9                   	leave  
 804a3bf:	c3                   	ret    

0804a3c0 <matrix_addpoint_fromcoords_resize>:
 804a3c0:	55                   	push   %ebp
 804a3c1:	89 e5                	mov    %esp,%ebp
 804a3c3:	83 ec 48             	sub    $0x48,%esp
 804a3c6:	8b 45 0c             	mov    0xc(%ebp),%eax
 804a3c9:	89 45 f0             	mov    %eax,-0x10(%ebp)
 804a3cc:	8b 45 10             	mov    0x10(%ebp),%eax
 804a3cf:	89 45 f4             	mov    %eax,-0xc(%ebp)
 804a3d2:	8b 45 14             	mov    0x14(%ebp),%eax
 804a3d5:	89 45 e8             	mov    %eax,-0x18(%ebp)
 804a3d8:	8b 45 18             	mov    0x18(%ebp),%eax
 804a3db:	89 45 ec             	mov    %eax,-0x14(%ebp)
 804a3de:	8b 45 1c             	mov    0x1c(%ebp),%eax
 804a3e1:	89 45 e0             	mov    %eax,-0x20(%ebp)
 804a3e4:	8b 45 20             	mov    0x20(%ebp),%eax
 804a3e7:	89 45 e4             	mov    %eax,-0x1c(%ebp)
 804a3ea:	8b 45 08             	mov    0x8(%ebp),%eax
 804a3ed:	8b 50 0c             	mov    0xc(%eax),%edx
 804a3f0:	8b 45 08             	mov    0x8(%ebp),%eax
 804a3f3:	8b 40 08             	mov    0x8(%eax),%eax
 804a3f6:	39 c2                	cmp    %eax,%edx
 804a3f8:	75 22                	jne    804a41c <matrix_addpoint_fromcoords_resize+0x5c>
 804a3fa:	8b 45 08             	mov    0x8(%ebp),%eax
 804a3fd:	8b 40 04             	mov    0x4(%eax),%eax
 804a400:	8b 55 08             	mov    0x8(%ebp),%edx
 804a403:	8b 52 0c             	mov    0xc(%edx),%edx
 804a406:	83 c2 01             	add    $0x1,%edx
 804a409:	89 44 24 08          	mov    %eax,0x8(%esp)
 804a40d:	89 54 24 04          	mov    %edx,0x4(%esp)
 804a411:	8b 45 08             	mov    0x8(%ebp),%eax
 804a414:	89 04 24             	mov    %eax,(%esp)
 804a417:	e8 5e f2 ff ff       	call   804967a <matrix_resize>
 804a41c:	dd 45 e0             	fldl   -0x20(%ebp)
 804a41f:	dd 5c 24 14          	fstpl  0x14(%esp)
 804a423:	dd 45 e8             	fldl   -0x18(%ebp)
 804a426:	dd 5c 24 0c          	fstpl  0xc(%esp)
 804a42a:	dd 45 f0             	fldl   -0x10(%ebp)
 804a42d:	dd 5c 24 04          	fstpl  0x4(%esp)
 804a431:	8b 45 08             	mov    0x8(%ebp),%eax
 804a434:	89 04 24             	mov    %eax,(%esp)
 804a437:	e8 c4 fe ff ff       	call   804a300 <matrix_addpoint_fromcoords>
 804a43c:	c9                   	leave  
 804a43d:	c3                   	ret    

0804a43e <matrix_cat>:
 804a43e:	55                   	push   %ebp
 804a43f:	89 e5                	mov    %esp,%ebp
 804a441:	53                   	push   %ebx
 804a442:	83 ec 14             	sub    $0x14,%esp
 804a445:	8b 45 08             	mov    0x8(%ebp),%eax
 804a448:	8b 50 0c             	mov    0xc(%eax),%edx
 804a44b:	8b 45 0c             	mov    0xc(%ebp),%eax
 804a44e:	8b 40 0c             	mov    0xc(%eax),%eax
 804a451:	01 c2                	add    %eax,%edx
 804a453:	8b 45 08             	mov    0x8(%ebp),%eax
 804a456:	8b 40 08             	mov    0x8(%eax),%eax
 804a459:	39 c2                	cmp    %eax,%edx
 804a45b:	7e 07                	jle    804a464 <matrix_cat+0x26>
 804a45d:	b8 00 00 00 00       	mov    $0x0,%eax
 804a462:	eb 46                	jmp    804a4aa <matrix_cat+0x6c>
 804a464:	8b 45 0c             	mov    0xc(%ebp),%eax
 804a467:	8b 50 04             	mov    0x4(%eax),%edx
 804a46a:	8b 45 0c             	mov    0xc(%ebp),%eax
 804a46d:	8b 40 0c             	mov    0xc(%eax),%eax
 804a470:	0f af c2             	imul   %edx,%eax
 804a473:	8d 0c c5 00 00 00 00 	lea    0x0(,%eax,8),%ecx
 804a47a:	8b 45 0c             	mov    0xc(%ebp),%eax
 804a47d:	8b 00                	mov    (%eax),%eax
 804a47f:	8b 10                	mov    (%eax),%edx
 804a481:	8b 45 08             	mov    0x8(%ebp),%eax
 804a484:	8b 18                	mov    (%eax),%ebx
 804a486:	8b 45 08             	mov    0x8(%ebp),%eax
 804a489:	8b 40 0c             	mov    0xc(%eax),%eax
 804a48c:	c1 e0 02             	shl    $0x2,%eax
 804a48f:	8d 04 03             	lea    (%ebx,%eax,1),%eax
 804a492:	8b 00                	mov    (%eax),%eax
 804a494:	89 4c 24 08          	mov    %ecx,0x8(%esp)
 804a498:	89 54 24 04          	mov    %edx,0x4(%esp)
 804a49c:	89 04 24             	mov    %eax,(%esp)
 804a49f:	e8 a0 e6 ff ff       	call   8048b44 <memcpy@plt>
 804a4a4:	8b 45 08             	mov    0x8(%ebp),%eax
 804a4a7:	8b 40 0c             	mov    0xc(%eax),%eax
 804a4aa:	83 c4 14             	add    $0x14,%esp
 804a4ad:	5b                   	pop    %ebx
 804a4ae:	5d                   	pop    %ebp
 804a4af:	c3                   	ret    

0804a4b0 <matrix_cat_resize>:
 804a4b0:	55                   	push   %ebp
 804a4b1:	89 e5                	mov    %esp,%ebp
 804a4b3:	83 ec 18             	sub    $0x18,%esp
 804a4b6:	8b 45 08             	mov    0x8(%ebp),%eax
 804a4b9:	8b 50 0c             	mov    0xc(%eax),%edx
 804a4bc:	8b 45 0c             	mov    0xc(%ebp),%eax
 804a4bf:	8b 40 0c             	mov    0xc(%eax),%eax
 804a4c2:	01 c2                	add    %eax,%edx
 804a4c4:	8b 45 08             	mov    0x8(%ebp),%eax
 804a4c7:	8b 40 08             	mov    0x8(%eax),%eax
 804a4ca:	39 c2                	cmp    %eax,%edx
 804a4cc:	7e 28                	jle    804a4f6 <matrix_cat_resize+0x46>
 804a4ce:	8b 45 08             	mov    0x8(%ebp),%eax
 804a4d1:	8b 40 04             	mov    0x4(%eax),%eax
 804a4d4:	8b 55 08             	mov    0x8(%ebp),%edx
 804a4d7:	8b 4a 0c             	mov    0xc(%edx),%ecx
 804a4da:	8b 55 0c             	mov    0xc(%ebp),%edx
 804a4dd:	8b 52 0c             	mov    0xc(%edx),%edx
 804a4e0:	8d 14 11             	lea    (%ecx,%edx,1),%edx
 804a4e3:	89 44 24 08          	mov    %eax,0x8(%esp)
 804a4e7:	89 54 24 04          	mov    %edx,0x4(%esp)
 804a4eb:	8b 45 08             	mov    0x8(%ebp),%eax
 804a4ee:	89 04 24             	mov    %eax,(%esp)
 804a4f1:	e8 84 f1 ff ff       	call   804967a <matrix_resize>
 804a4f6:	8b 45 0c             	mov    0xc(%ebp),%eax
 804a4f9:	89 44 24 04          	mov    %eax,0x4(%esp)
 804a4fd:	8b 45 08             	mov    0x8(%ebp),%eax
 804a500:	89 04 24             	mov    %eax,(%esp)
 804a503:	e8 36 ff ff ff       	call   804a43e <matrix_cat>
 804a508:	c9                   	leave  
 804a509:	c3                   	ret    
 804a50a:	90                   	nop
 804a50b:	90                   	nop

0804a50c <line_draw>:
 804a50c:	55                   	push   %ebp
 804a50d:	89 e5                	mov    %esp,%ebp
 804a50f:	53                   	push   %ebx
 804a510:	83 ec 5c             	sub    $0x5c,%esp
 804a513:	8b 45 08             	mov    0x8(%ebp),%eax
 804a516:	89 45 c0             	mov    %eax,-0x40(%ebp)
 804a519:	8b 45 0c             	mov    0xc(%ebp),%eax
 804a51c:	89 45 c4             	mov    %eax,-0x3c(%ebp)
 804a51f:	8b 45 10             	mov    0x10(%ebp),%eax
 804a522:	89 45 b8             	mov    %eax,-0x48(%ebp)
 804a525:	8b 45 14             	mov    0x14(%ebp),%eax
 804a528:	89 45 bc             	mov    %eax,-0x44(%ebp)
 804a52b:	8b 45 18             	mov    0x18(%ebp),%eax
 804a52e:	89 45 b0             	mov    %eax,-0x50(%ebp)
 804a531:	8b 45 1c             	mov    0x1c(%ebp),%eax
 804a534:	89 45 b4             	mov    %eax,-0x4c(%ebp)
 804a537:	8b 45 20             	mov    0x20(%ebp),%eax
 804a53a:	89 45 a8             	mov    %eax,-0x58(%ebp)
 804a53d:	8b 45 24             	mov    0x24(%ebp),%eax
 804a540:	89 45 ac             	mov    %eax,-0x54(%ebp)
 804a543:	dd 45 c0             	fldl   -0x40(%ebp)
 804a546:	d9 7d a6             	fnstcw -0x5a(%ebp)
 804a549:	0f b7 45 a6          	movzwl -0x5a(%ebp),%eax
 804a54d:	b4 0c                	mov    $0xc,%ah
 804a54f:	66 89 45 a4          	mov    %ax,-0x5c(%ebp)
 804a553:	d9 6d a4             	fldcw  -0x5c(%ebp)
 804a556:	db 5d f4             	fistpl -0xc(%ebp)
 804a559:	d9 6d a6             	fldcw  -0x5a(%ebp)
 804a55c:	dd 45 b8             	fldl   -0x48(%ebp)
 804a55f:	d9 6d a4             	fldcw  -0x5c(%ebp)
 804a562:	db 5d f0             	fistpl -0x10(%ebp)
 804a565:	d9 6d a6             	fldcw  -0x5a(%ebp)
 804a568:	dd 45 b0             	fldl   -0x50(%ebp)
 804a56b:	d9 6d a4             	fldcw  -0x5c(%ebp)
 804a56e:	db 5d ec             	fistpl -0x14(%ebp)
 804a571:	d9 6d a6             	fldcw  -0x5a(%ebp)
 804a574:	dd 45 a8             	fldl   -0x58(%ebp)
 804a577:	d9 6d a4             	fldcw  -0x5c(%ebp)
 804a57a:	db 5d e8             	fistpl -0x18(%ebp)
 804a57d:	d9 6d a6             	fldcw  -0x5a(%ebp)
 804a580:	8b 45 f0             	mov    -0x10(%ebp),%eax
 804a583:	8b 55 e8             	mov    -0x18(%ebp),%edx
 804a586:	29 c2                	sub    %eax,%edx
 804a588:	89 d0                	mov    %edx,%eax
 804a58a:	c1 f8 1f             	sar    $0x1f,%eax
 804a58d:	31 c2                	xor    %eax,%edx
 804a58f:	29 c2                	sub    %eax,%edx
 804a591:	8b 45 f4             	mov    -0xc(%ebp),%eax
 804a594:	8b 4d ec             	mov    -0x14(%ebp),%ecx
 804a597:	89 cb                	mov    %ecx,%ebx
 804a599:	29 c3                	sub    %eax,%ebx
 804a59b:	89 d8                	mov    %ebx,%eax
 804a59d:	89 c1                	mov    %eax,%ecx
 804a59f:	c1 f9 1f             	sar    $0x1f,%ecx
 804a5a2:	31 c8                	xor    %ecx,%eax
 804a5a4:	29 c8                	sub    %ecx,%eax
 804a5a6:	39 c2                	cmp    %eax,%edx
 804a5a8:	0f 9f c0             	setg   %al
 804a5ab:	0f b6 c0             	movzbl %al,%eax
 804a5ae:	89 45 e4             	mov    %eax,-0x1c(%ebp)
 804a5b1:	83 7d e4 00          	cmpl   $0x0,-0x1c(%ebp)
 804a5b5:	74 24                	je     804a5db <line_draw+0xcf>
 804a5b7:	8b 45 f4             	mov    -0xc(%ebp),%eax
 804a5ba:	89 45 e0             	mov    %eax,-0x20(%ebp)
 804a5bd:	8b 45 f0             	mov    -0x10(%ebp),%eax
 804a5c0:	89 45 f4             	mov    %eax,-0xc(%ebp)
 804a5c3:	8b 45 e0             	mov    -0x20(%ebp),%eax
 804a5c6:	89 45 f0             	mov    %eax,-0x10(%ebp)
 804a5c9:	8b 45 ec             	mov    -0x14(%ebp),%eax
 804a5cc:	89 45 e0             	mov    %eax,-0x20(%ebp)
 804a5cf:	8b 45 e8             	mov    -0x18(%ebp),%eax
 804a5d2:	89 45 ec             	mov    %eax,-0x14(%ebp)
 804a5d5:	8b 45 e0             	mov    -0x20(%ebp),%eax
 804a5d8:	89 45 e8             	mov    %eax,-0x18(%ebp)
 804a5db:	8b 45 f4             	mov    -0xc(%ebp),%eax
 804a5de:	3b 45 ec             	cmp    -0x14(%ebp),%eax
 804a5e1:	7e 24                	jle    804a607 <line_draw+0xfb>
 804a5e3:	8b 45 f4             	mov    -0xc(%ebp),%eax
 804a5e6:	89 45 e0             	mov    %eax,-0x20(%ebp)
 804a5e9:	8b 45 ec             	mov    -0x14(%ebp),%eax
 804a5ec:	89 45 f4             	mov    %eax,-0xc(%ebp)
 804a5ef:	8b 45 e0             	mov    -0x20(%ebp),%eax
 804a5f2:	89 45 ec             	mov    %eax,-0x14(%ebp)
 804a5f5:	8b 45 f0             	mov    -0x10(%ebp),%eax
 804a5f8:	89 45 e0             	mov    %eax,-0x20(%ebp)
 804a5fb:	8b 45 e8             	mov    -0x18(%ebp),%eax
 804a5fe:	89 45 f0             	mov    %eax,-0x10(%ebp)
 804a601:	8b 45 e0             	mov    -0x20(%ebp),%eax
 804a604:	89 45 e8             	mov    %eax,-0x18(%ebp)
 804a607:	8b 45 f4             	mov    -0xc(%ebp),%eax
 804a60a:	8b 55 ec             	mov    -0x14(%ebp),%edx
 804a60d:	89 d1                	mov    %edx,%ecx
 804a60f:	29 c1                	sub    %eax,%ecx
 804a611:	89 c8                	mov    %ecx,%eax
 804a613:	89 45 dc             	mov    %eax,-0x24(%ebp)
 804a616:	8b 45 f0             	mov    -0x10(%ebp),%eax
 804a619:	8b 55 e8             	mov    -0x18(%ebp),%edx
 804a61c:	29 c2                	sub    %eax,%edx
 804a61e:	89 d0                	mov    %edx,%eax
 804a620:	c1 f8 1f             	sar    $0x1f,%eax
 804a623:	31 c2                	xor    %eax,%edx
 804a625:	89 55 d8             	mov    %edx,-0x28(%ebp)
 804a628:	29 45 d8             	sub    %eax,-0x28(%ebp)
 804a62b:	8b 45 dc             	mov    -0x24(%ebp),%eax
 804a62e:	89 c2                	mov    %eax,%edx
 804a630:	c1 ea 1f             	shr    $0x1f,%edx
 804a633:	8d 04 02             	lea    (%edx,%eax,1),%eax
 804a636:	d1 f8                	sar    %eax
 804a638:	89 45 d0             	mov    %eax,-0x30(%ebp)
 804a63b:	8b 45 e8             	mov    -0x18(%ebp),%eax
 804a63e:	3b 45 f0             	cmp    -0x10(%ebp),%eax
 804a641:	7d 09                	jge    804a64c <line_draw+0x140>
 804a643:	c7 45 d4 ff ff ff ff 	movl   $0xffffffff,-0x2c(%ebp)
 804a64a:	eb 07                	jmp    804a653 <line_draw+0x147>
 804a64c:	c7 45 d4 01 00 00 00 	movl   $0x1,-0x2c(%ebp)
 804a653:	8b 45 f0             	mov    -0x10(%ebp),%eax
 804a656:	89 45 c8             	mov    %eax,-0x38(%ebp)
 804a659:	8b 45 f4             	mov    -0xc(%ebp),%eax
 804a65c:	89 45 cc             	mov    %eax,-0x34(%ebp)
 804a65f:	e9 9e 00 00 00       	jmp    804a702 <line_draw+0x1f6>
 804a664:	83 7d e4 00          	cmpl   $0x0,-0x1c(%ebp)
 804a668:	74 3f                	je     804a6a9 <line_draw+0x19d>
 804a66a:	83 7d c8 00          	cmpl   $0x0,-0x38(%ebp)
 804a66e:	78 76                	js     804a6e6 <line_draw+0x1da>
 804a670:	a1 70 06 05 08       	mov    0x8050670,%eax
 804a675:	39 45 c8             	cmp    %eax,-0x38(%ebp)
 804a678:	7d 6c                	jge    804a6e6 <line_draw+0x1da>
 804a67a:	83 7d cc 00          	cmpl   $0x0,-0x34(%ebp)
 804a67e:	78 66                	js     804a6e6 <line_draw+0x1da>
 804a680:	a1 5c 06 05 08       	mov    0x805065c,%eax
 804a685:	39 45 cc             	cmp    %eax,-0x34(%ebp)
 804a688:	7d 5c                	jge    804a6e6 <line_draw+0x1da>
 804a68a:	a1 74 06 05 08       	mov    0x8050674,%eax
 804a68f:	89 c2                	mov    %eax,%edx
 804a691:	a1 30 06 05 08       	mov    0x8050630,%eax
 804a696:	0f af 45 cc          	imul   -0x34(%ebp),%eax
 804a69a:	03 45 c8             	add    -0x38(%ebp),%eax
 804a69d:	c1 e0 02             	shl    $0x2,%eax
 804a6a0:	01 c2                	add    %eax,%edx
 804a6a2:	8b 45 28             	mov    0x28(%ebp),%eax
 804a6a5:	89 02                	mov    %eax,(%edx)
 804a6a7:	eb 3d                	jmp    804a6e6 <line_draw+0x1da>
 804a6a9:	83 7d cc 00          	cmpl   $0x0,-0x34(%ebp)
 804a6ad:	78 37                	js     804a6e6 <line_draw+0x1da>
 804a6af:	a1 70 06 05 08       	mov    0x8050670,%eax
 804a6b4:	39 45 cc             	cmp    %eax,-0x34(%ebp)
 804a6b7:	7d 2d                	jge    804a6e6 <line_draw+0x1da>
 804a6b9:	83 7d c8 00          	cmpl   $0x0,-0x38(%ebp)
 804a6bd:	78 27                	js     804a6e6 <line_draw+0x1da>
 804a6bf:	a1 5c 06 05 08       	mov    0x805065c,%eax
 804a6c4:	39 45 c8             	cmp    %eax,-0x38(%ebp)
 804a6c7:	7d 1d                	jge    804a6e6 <line_draw+0x1da>
 804a6c9:	a1 74 06 05 08       	mov    0x8050674,%eax
 804a6ce:	89 c2                	mov    %eax,%edx
 804a6d0:	a1 30 06 05 08       	mov    0x8050630,%eax
 804a6d5:	0f af 45 c8          	imul   -0x38(%ebp),%eax
 804a6d9:	03 45 cc             	add    -0x34(%ebp),%eax
 804a6dc:	c1 e0 02             	shl    $0x2,%eax
 804a6df:	01 c2                	add    %eax,%edx
 804a6e1:	8b 45 28             	mov    0x28(%ebp),%eax
 804a6e4:	89 02                	mov    %eax,(%edx)
 804a6e6:	8b 45 d8             	mov    -0x28(%ebp),%eax
 804a6e9:	29 45 d0             	sub    %eax,-0x30(%ebp)
 804a6ec:	83 7d d0 00          	cmpl   $0x0,-0x30(%ebp)
 804a6f0:	79 0c                	jns    804a6fe <line_draw+0x1f2>
 804a6f2:	8b 45 d4             	mov    -0x2c(%ebp),%eax
 804a6f5:	01 45 c8             	add    %eax,-0x38(%ebp)
 804a6f8:	8b 45 dc             	mov    -0x24(%ebp),%eax
 804a6fb:	01 45 d0             	add    %eax,-0x30(%ebp)
 804a6fe:	83 45 cc 01          	addl   $0x1,-0x34(%ebp)
 804a702:	8b 45 cc             	mov    -0x34(%ebp),%eax
 804a705:	3b 45 ec             	cmp    -0x14(%ebp),%eax
 804a708:	0f 8e 56 ff ff ff    	jle    804a664 <line_draw+0x158>
 804a70e:	83 c4 5c             	add    $0x5c,%esp
 804a711:	5b                   	pop    %ebx
 804a712:	5d                   	pop    %ebp
 804a713:	c3                   	ret    

0804a714 <line_draw_aa>:
 804a714:	55                   	push   %ebp
 804a715:	89 e5                	mov    %esp,%ebp
 804a717:	81 ec 88 01 00 00    	sub    $0x188,%esp
 804a71d:	8b 45 08             	mov    0x8(%ebp),%eax
 804a720:	89 85 d0 fe ff ff    	mov    %eax,-0x130(%ebp)
 804a726:	8b 45 0c             	mov    0xc(%ebp),%eax
 804a729:	89 85 d4 fe ff ff    	mov    %eax,-0x12c(%ebp)
 804a72f:	8b 45 10             	mov    0x10(%ebp),%eax
 804a732:	89 85 c8 fe ff ff    	mov    %eax,-0x138(%ebp)
 804a738:	8b 45 14             	mov    0x14(%ebp),%eax
 804a73b:	89 85 cc fe ff ff    	mov    %eax,-0x134(%ebp)
 804a741:	8b 45 18             	mov    0x18(%ebp),%eax
 804a744:	89 85 c0 fe ff ff    	mov    %eax,-0x140(%ebp)
 804a74a:	8b 45 1c             	mov    0x1c(%ebp),%eax
 804a74d:	89 85 c4 fe ff ff    	mov    %eax,-0x13c(%ebp)
 804a753:	8b 45 20             	mov    0x20(%ebp),%eax
 804a756:	89 85 b8 fe ff ff    	mov    %eax,-0x148(%ebp)
 804a75c:	8b 45 24             	mov    0x24(%ebp),%eax
 804a75f:	89 85 bc fe ff ff    	mov    %eax,-0x144(%ebp)
 804a765:	d9 ee                	fldz   
 804a767:	dd 5d c8             	fstpl  -0x38(%ebp)
 804a76a:	d9 ee                	fldz   
 804a76c:	dd 5d c0             	fstpl  -0x40(%ebp)
 804a76f:	d9 ee                	fldz   
 804a771:	dd 5d b8             	fstpl  -0x48(%ebp)
 804a774:	d9 ee                	fldz   
 804a776:	dd 5d b0             	fstpl  -0x50(%ebp)
 804a779:	dd 85 d0 fe ff ff    	fldl   -0x130(%ebp)
 804a77f:	dd 85 c0 fe ff ff    	fldl   -0x140(%ebp)
 804a785:	d9 c9                	fxch   %st(1)
 804a787:	df e9                	fucomip %st(1),%st
 804a789:	dd d8                	fstp   %st(0)
 804a78b:	0f 85 85 01 00 00    	jne    804a916 <line_draw_aa+0x202>
 804a791:	0f 8a 7f 01 00 00    	jp     804a916 <line_draw_aa+0x202>
 804a797:	dd 85 d0 fe ff ff    	fldl   -0x130(%ebp)
 804a79d:	d9 ee                	fldz   
 804a79f:	df e9                	fucomip %st(1),%st
 804a7a1:	dd d8                	fstp   %st(0)
 804a7a3:	0f 97 c0             	seta   %al
 804a7a6:	84 c0                	test   %al,%al
 804a7a8:	0f 85 92 0f 00 00    	jne    804b740 <line_draw_aa+0x102c>
 804a7ae:	a1 70 06 05 08       	mov    0x8050670,%eax
 804a7b3:	83 e8 01             	sub    $0x1,%eax
 804a7b6:	89 85 b0 fe ff ff    	mov    %eax,-0x150(%ebp)
 804a7bc:	db 85 b0 fe ff ff    	fildl  -0x150(%ebp)
 804a7c2:	dd 85 d0 fe ff ff    	fldl   -0x130(%ebp)
 804a7c8:	df e9                	fucomip %st(1),%st
 804a7ca:	dd d8                	fstp   %st(0)
 804a7cc:	0f 97 c0             	seta   %al
 804a7cf:	84 c0                	test   %al,%al
 804a7d1:	0f 85 6c 0f 00 00    	jne    804b743 <line_draw_aa+0x102f>
 804a7d7:	dd 85 d0 fe ff ff    	fldl   -0x130(%ebp)
 804a7dd:	dd 5d b8             	fstpl  -0x48(%ebp)
 804a7e0:	dd 45 b8             	fldl   -0x48(%ebp)
 804a7e3:	dd 5d c8             	fstpl  -0x38(%ebp)
 804a7e6:	dd 85 c8 fe ff ff    	fldl   -0x138(%ebp)
 804a7ec:	d9 ee                	fldz   
 804a7ee:	df e9                	fucomip %st(1),%st
 804a7f0:	dd d8                	fstp   %st(0)
 804a7f2:	0f 97 c0             	seta   %al
 804a7f5:	84 c0                	test   %al,%al
 804a7f7:	74 1e                	je     804a817 <line_draw_aa+0x103>
 804a7f9:	dd 85 b8 fe ff ff    	fldl   -0x148(%ebp)
 804a7ff:	d9 ee                	fldz   
 804a801:	df e9                	fucomip %st(1),%st
 804a803:	dd d8                	fstp   %st(0)
 804a805:	0f 97 c0             	seta   %al
 804a808:	84 c0                	test   %al,%al
 804a80a:	0f 85 36 0f 00 00    	jne    804b746 <line_draw_aa+0x1032>
 804a810:	d9 ee                	fldz   
 804a812:	dd 5d c0             	fstpl  -0x40(%ebp)
 804a815:	eb 70                	jmp    804a887 <line_draw_aa+0x173>
 804a817:	a1 5c 06 05 08       	mov    0x805065c,%eax
 804a81c:	83 e8 01             	sub    $0x1,%eax
 804a81f:	89 85 b0 fe ff ff    	mov    %eax,-0x150(%ebp)
 804a825:	db 85 b0 fe ff ff    	fildl  -0x150(%ebp)
 804a82b:	dd 85 c8 fe ff ff    	fldl   -0x138(%ebp)
 804a831:	df e9                	fucomip %st(1),%st
 804a833:	dd d8                	fstp   %st(0)
 804a835:	0f 97 c0             	seta   %al
 804a838:	84 c0                	test   %al,%al
 804a83a:	74 42                	je     804a87e <line_draw_aa+0x16a>
 804a83c:	a1 5c 06 05 08       	mov    0x805065c,%eax
 804a841:	83 e8 01             	sub    $0x1,%eax
 804a844:	89 85 b0 fe ff ff    	mov    %eax,-0x150(%ebp)
 804a84a:	db 85 b0 fe ff ff    	fildl  -0x150(%ebp)
 804a850:	dd 85 b8 fe ff ff    	fldl   -0x148(%ebp)
 804a856:	df e9                	fucomip %st(1),%st
 804a858:	dd d8                	fstp   %st(0)
 804a85a:	0f 97 c0             	seta   %al
 804a85d:	84 c0                	test   %al,%al
 804a85f:	0f 85 e4 0e 00 00    	jne    804b749 <line_draw_aa+0x1035>
 804a865:	a1 5c 06 05 08       	mov    0x805065c,%eax
 804a86a:	83 e8 01             	sub    $0x1,%eax
 804a86d:	89 85 b0 fe ff ff    	mov    %eax,-0x150(%ebp)
 804a873:	db 85 b0 fe ff ff    	fildl  -0x150(%ebp)
 804a879:	dd 5d c0             	fstpl  -0x40(%ebp)
 804a87c:	eb 09                	jmp    804a887 <line_draw_aa+0x173>
 804a87e:	dd 85 c8 fe ff ff    	fldl   -0x138(%ebp)
 804a884:	dd 5d c0             	fstpl  -0x40(%ebp)
 804a887:	dd 85 b8 fe ff ff    	fldl   -0x148(%ebp)
 804a88d:	d9 ee                	fldz   
 804a88f:	df e9                	fucomip %st(1),%st
 804a891:	dd d8                	fstp   %st(0)
 804a893:	0f 97 c0             	seta   %al
 804a896:	84 c0                	test   %al,%al
 804a898:	74 07                	je     804a8a1 <line_draw_aa+0x18d>
 804a89a:	d9 ee                	fldz   
 804a89c:	dd 5d b0             	fstpl  -0x50(%ebp)
 804a89f:	eb 47                	jmp    804a8e8 <line_draw_aa+0x1d4>
 804a8a1:	a1 5c 06 05 08       	mov    0x805065c,%eax
 804a8a6:	83 e8 01             	sub    $0x1,%eax
 804a8a9:	89 85 b0 fe ff ff    	mov    %eax,-0x150(%ebp)
 804a8af:	db 85 b0 fe ff ff    	fildl  -0x150(%ebp)
 804a8b5:	dd 85 b8 fe ff ff    	fldl   -0x148(%ebp)
 804a8bb:	df e9                	fucomip %st(1),%st
 804a8bd:	dd d8                	fstp   %st(0)
 804a8bf:	0f 97 c0             	seta   %al
 804a8c2:	84 c0                	test   %al,%al
 804a8c4:	74 19                	je     804a8df <line_draw_aa+0x1cb>
 804a8c6:	a1 5c 06 05 08       	mov    0x805065c,%eax
 804a8cb:	83 e8 01             	sub    $0x1,%eax
 804a8ce:	89 85 b0 fe ff ff    	mov    %eax,-0x150(%ebp)
 804a8d4:	db 85 b0 fe ff ff    	fildl  -0x150(%ebp)
 804a8da:	dd 5d b0             	fstpl  -0x50(%ebp)
 804a8dd:	eb 09                	jmp    804a8e8 <line_draw_aa+0x1d4>
 804a8df:	dd 85 b8 fe ff ff    	fldl   -0x148(%ebp)
 804a8e5:	dd 5d b0             	fstpl  -0x50(%ebp)
 804a8e8:	dd 45 c0             	fldl   -0x40(%ebp)
 804a8eb:	dd 45 b0             	fldl   -0x50(%ebp)
 804a8ee:	d9 c9                	fxch   %st(1)
 804a8f0:	df e9                	fucomip %st(1),%st
 804a8f2:	dd d8                	fstp   %st(0)
 804a8f4:	0f 97 c0             	seta   %al
 804a8f7:	84 c0                	test   %al,%al
 804a8f9:	0f 84 5f 05 00 00    	je     804ae5e <line_draw_aa+0x74a>
 804a8ff:	dd 45 c0             	fldl   -0x40(%ebp)
 804a902:	dd 5d a8             	fstpl  -0x58(%ebp)
 804a905:	dd 45 b0             	fldl   -0x50(%ebp)
 804a908:	dd 5d c0             	fstpl  -0x40(%ebp)
 804a90b:	dd 45 a8             	fldl   -0x58(%ebp)
 804a90e:	dd 5d b0             	fstpl  -0x50(%ebp)
 804a911:	e9 48 05 00 00       	jmp    804ae5e <line_draw_aa+0x74a>
 804a916:	dd 85 c8 fe ff ff    	fldl   -0x138(%ebp)
 804a91c:	dd 85 b8 fe ff ff    	fldl   -0x148(%ebp)
 804a922:	d9 c9                	fxch   %st(1)
 804a924:	df e9                	fucomip %st(1),%st
 804a926:	dd d8                	fstp   %st(0)
 804a928:	0f 85 85 01 00 00    	jne    804aab3 <line_draw_aa+0x39f>
 804a92e:	0f 8a 7f 01 00 00    	jp     804aab3 <line_draw_aa+0x39f>
 804a934:	dd 85 c8 fe ff ff    	fldl   -0x138(%ebp)
 804a93a:	d9 ee                	fldz   
 804a93c:	df e9                	fucomip %st(1),%st
 804a93e:	dd d8                	fstp   %st(0)
 804a940:	0f 97 c0             	seta   %al
 804a943:	84 c0                	test   %al,%al
 804a945:	0f 85 01 0e 00 00    	jne    804b74c <line_draw_aa+0x1038>
 804a94b:	a1 5c 06 05 08       	mov    0x805065c,%eax
 804a950:	83 e8 01             	sub    $0x1,%eax
 804a953:	89 85 b0 fe ff ff    	mov    %eax,-0x150(%ebp)
 804a959:	db 85 b0 fe ff ff    	fildl  -0x150(%ebp)
 804a95f:	dd 85 c8 fe ff ff    	fldl   -0x138(%ebp)
 804a965:	df e9                	fucomip %st(1),%st
 804a967:	dd d8                	fstp   %st(0)
 804a969:	0f 97 c0             	seta   %al
 804a96c:	84 c0                	test   %al,%al
 804a96e:	0f 85 db 0d 00 00    	jne    804b74f <line_draw_aa+0x103b>
 804a974:	dd 85 c8 fe ff ff    	fldl   -0x138(%ebp)
 804a97a:	dd 5d b0             	fstpl  -0x50(%ebp)
 804a97d:	dd 45 b0             	fldl   -0x50(%ebp)
 804a980:	dd 5d c0             	fstpl  -0x40(%ebp)
 804a983:	dd 85 d0 fe ff ff    	fldl   -0x130(%ebp)
 804a989:	d9 ee                	fldz   
 804a98b:	df e9                	fucomip %st(1),%st
 804a98d:	dd d8                	fstp   %st(0)
 804a98f:	0f 97 c0             	seta   %al
 804a992:	84 c0                	test   %al,%al
 804a994:	74 1e                	je     804a9b4 <line_draw_aa+0x2a0>
 804a996:	dd 85 c0 fe ff ff    	fldl   -0x140(%ebp)
 804a99c:	d9 ee                	fldz   
 804a99e:	df e9                	fucomip %st(1),%st
 804a9a0:	dd d8                	fstp   %st(0)
 804a9a2:	0f 97 c0             	seta   %al
 804a9a5:	84 c0                	test   %al,%al
 804a9a7:	0f 85 a5 0d 00 00    	jne    804b752 <line_draw_aa+0x103e>
 804a9ad:	d9 ee                	fldz   
 804a9af:	dd 5d c8             	fstpl  -0x38(%ebp)
 804a9b2:	eb 70                	jmp    804aa24 <line_draw_aa+0x310>
 804a9b4:	a1 70 06 05 08       	mov    0x8050670,%eax
 804a9b9:	83 e8 01             	sub    $0x1,%eax
 804a9bc:	89 85 b0 fe ff ff    	mov    %eax,-0x150(%ebp)
 804a9c2:	db 85 b0 fe ff ff    	fildl  -0x150(%ebp)
 804a9c8:	dd 85 d0 fe ff ff    	fldl   -0x130(%ebp)
 804a9ce:	df e9                	fucomip %st(1),%st
 804a9d0:	dd d8                	fstp   %st(0)
 804a9d2:	0f 97 c0             	seta   %al
 804a9d5:	84 c0                	test   %al,%al
 804a9d7:	74 42                	je     804aa1b <line_draw_aa+0x307>
 804a9d9:	a1 70 06 05 08       	mov    0x8050670,%eax
 804a9de:	83 e8 01             	sub    $0x1,%eax
 804a9e1:	89 85 b0 fe ff ff    	mov    %eax,-0x150(%ebp)
 804a9e7:	db 85 b0 fe ff ff    	fildl  -0x150(%ebp)
 804a9ed:	dd 85 c0 fe ff ff    	fldl   -0x140(%ebp)
 804a9f3:	df e9                	fucomip %st(1),%st
 804a9f5:	dd d8                	fstp   %st(0)
 804a9f7:	0f 97 c0             	seta   %al
 804a9fa:	84 c0                	test   %al,%al
 804a9fc:	0f 85 53 0d 00 00    	jne    804b755 <line_draw_aa+0x1041>
 804aa02:	a1 70 06 05 08       	mov    0x8050670,%eax
 804aa07:	83 e8 01             	sub    $0x1,%eax
 804aa0a:	89 85 b0 fe ff ff    	mov    %eax,-0x150(%ebp)
 804aa10:	db 85 b0 fe ff ff    	fildl  -0x150(%ebp)
 804aa16:	dd 5d c8             	fstpl  -0x38(%ebp)
 804aa19:	eb 09                	jmp    804aa24 <line_draw_aa+0x310>
 804aa1b:	dd 85 d0 fe ff ff    	fldl   -0x130(%ebp)
 804aa21:	dd 5d c8             	fstpl  -0x38(%ebp)
 804aa24:	dd 85 c0 fe ff ff    	fldl   -0x140(%ebp)
 804aa2a:	d9 ee                	fldz   
 804aa2c:	df e9                	fucomip %st(1),%st
 804aa2e:	dd d8                	fstp   %st(0)
 804aa30:	0f 97 c0             	seta   %al
 804aa33:	84 c0                	test   %al,%al
 804aa35:	74 07                	je     804aa3e <line_draw_aa+0x32a>
 804aa37:	d9 ee                	fldz   
 804aa39:	dd 5d b8             	fstpl  -0x48(%ebp)
 804aa3c:	eb 47                	jmp    804aa85 <line_draw_aa+0x371>
 804aa3e:	a1 70 06 05 08       	mov    0x8050670,%eax
 804aa43:	83 e8 01             	sub    $0x1,%eax
 804aa46:	89 85 b0 fe ff ff    	mov    %eax,-0x150(%ebp)
 804aa4c:	db 85 b0 fe ff ff    	fildl  -0x150(%ebp)
 804aa52:	dd 85 c0 fe ff ff    	fldl   -0x140(%ebp)
 804aa58:	df e9                	fucomip %st(1),%st
 804aa5a:	dd d8                	fstp   %st(0)
 804aa5c:	0f 97 c0             	seta   %al
 804aa5f:	84 c0                	test   %al,%al
 804aa61:	74 19                	je     804aa7c <line_draw_aa+0x368>
 804aa63:	a1 70 06 05 08       	mov    0x8050670,%eax
 804aa68:	83 e8 01             	sub    $0x1,%eax
 804aa6b:	89 85 b0 fe ff ff    	mov    %eax,-0x150(%ebp)
 804aa71:	db 85 b0 fe ff ff    	fildl  -0x150(%ebp)
 804aa77:	dd 5d b8             	fstpl  -0x48(%ebp)
 804aa7a:	eb 09                	jmp    804aa85 <line_draw_aa+0x371>
 804aa7c:	dd 85 c0 fe ff ff    	fldl   -0x140(%ebp)
 804aa82:	dd 5d b8             	fstpl  -0x48(%ebp)
 804aa85:	dd 45 c8             	fldl   -0x38(%ebp)
 804aa88:	dd 45 b8             	fldl   -0x48(%ebp)
 804aa8b:	d9 c9                	fxch   %st(1)
 804aa8d:	df e9                	fucomip %st(1),%st
 804aa8f:	dd d8                	fstp   %st(0)
 804aa91:	0f 97 c0             	seta   %al
 804aa94:	84 c0                	test   %al,%al
 804aa96:	0f 84 c2 03 00 00    	je     804ae5e <line_draw_aa+0x74a>
 804aa9c:	dd 45 c8             	fldl   -0x38(%ebp)
 804aa9f:	dd 5d a8             	fstpl  -0x58(%ebp)
 804aaa2:	dd 45 b8             	fldl   -0x48(%ebp)
 804aaa5:	dd 5d c8             	fstpl  -0x38(%ebp)
 804aaa8:	dd 45 a8             	fldl   -0x58(%ebp)
 804aaab:	dd 5d b8             	fstpl  -0x48(%ebp)
 804aaae:	e9 ab 03 00 00       	jmp    804ae5e <line_draw_aa+0x74a>
 804aab3:	dd 85 c0 fe ff ff    	fldl   -0x140(%ebp)
 804aab9:	dc a5 d0 fe ff ff    	fsubl  -0x130(%ebp)
 804aabf:	dd 85 b8 fe ff ff    	fldl   -0x148(%ebp)
 804aac5:	dc a5 c8 fe ff ff    	fsubl  -0x138(%ebp)
 804aacb:	de f9                	fdivrp %st,%st(1)
 804aacd:	dd 5d 98             	fstpl  -0x68(%ebp)
 804aad0:	dd 45 98             	fldl   -0x68(%ebp)
 804aad3:	dc 8d c8 fe ff ff    	fmull  -0x138(%ebp)
 804aad9:	dd 85 d0 fe ff ff    	fldl   -0x130(%ebp)
 804aadf:	de e1                	fsubp  %st,%st(1)
 804aae1:	dd 5d 90             	fstpl  -0x70(%ebp)
 804aae4:	a1 5c 06 05 08       	mov    0x805065c,%eax
 804aae9:	83 e8 01             	sub    $0x1,%eax
 804aaec:	89 85 b0 fe ff ff    	mov    %eax,-0x150(%ebp)
 804aaf2:	db 85 b0 fe ff ff    	fildl  -0x150(%ebp)
 804aaf8:	dc 4d 98             	fmull  -0x68(%ebp)
 804aafb:	dc 45 90             	faddl  -0x70(%ebp)
 804aafe:	dd 9d f8 fe ff ff    	fstpl  -0x108(%ebp)
 804ab04:	c7 85 18 ff ff ff 01 	movl   $0x1,-0xe8(%ebp)
 804ab0b:	00 00 00 
 804ab0e:	dd 45 90             	fldl   -0x70(%ebp)
 804ab11:	dd 9d 00 ff ff ff    	fstpl  -0x100(%ebp)
 804ab17:	c7 85 1c ff ff ff 01 	movl   $0x1,-0xe4(%ebp)
 804ab1e:	00 00 00 
 804ab21:	dd 85 b8 fe ff ff    	fldl   -0x148(%ebp)
 804ab27:	dc a5 c8 fe ff ff    	fsubl  -0x138(%ebp)
 804ab2d:	dd 85 c0 fe ff ff    	fldl   -0x140(%ebp)
 804ab33:	dc a5 d0 fe ff ff    	fsubl  -0x130(%ebp)
 804ab39:	de f9                	fdivrp %st,%st(1)
 804ab3b:	dd 5d 98             	fstpl  -0x68(%ebp)
 804ab3e:	dd 45 98             	fldl   -0x68(%ebp)
 804ab41:	dc 8d d0 fe ff ff    	fmull  -0x130(%ebp)
 804ab47:	dd 85 c8 fe ff ff    	fldl   -0x138(%ebp)
 804ab4d:	de e1                	fsubp  %st,%st(1)
 804ab4f:	dd 5d 90             	fstpl  -0x70(%ebp)
 804ab52:	d9 ee                	fldz   
 804ab54:	dd 9d d8 fe ff ff    	fstpl  -0x128(%ebp)
 804ab5a:	c7 85 08 ff ff ff 02 	movl   $0x2,-0xf8(%ebp)
 804ab61:	00 00 00 
 804ab64:	a1 70 06 05 08       	mov    0x8050670,%eax
 804ab69:	83 e8 01             	sub    $0x1,%eax
 804ab6c:	89 85 b0 fe ff ff    	mov    %eax,-0x150(%ebp)
 804ab72:	db 85 b0 fe ff ff    	fildl  -0x150(%ebp)
 804ab78:	dd 9d e0 fe ff ff    	fstpl  -0x120(%ebp)
 804ab7e:	c7 85 0c ff ff ff 02 	movl   $0x2,-0xf4(%ebp)
 804ab85:	00 00 00 
 804ab88:	dd 85 d0 fe ff ff    	fldl   -0x130(%ebp)
 804ab8e:	dd 9d e8 fe ff ff    	fstpl  -0x118(%ebp)
 804ab94:	c7 85 10 ff ff ff 03 	movl   $0x3,-0xf0(%ebp)
 804ab9b:	00 00 00 
 804ab9e:	dd 85 c0 fe ff ff    	fldl   -0x140(%ebp)
 804aba4:	dd 9d f0 fe ff ff    	fstpl  -0x110(%ebp)
 804abaa:	c7 85 14 ff ff ff 03 	movl   $0x3,-0xec(%ebp)
 804abb1:	00 00 00 
 804abb4:	c7 45 f4 00 00 00 00 	movl   $0x0,-0xc(%ebp)
 804abbb:	e9 a6 00 00 00       	jmp    804ac66 <line_draw_aa+0x552>
 804abc0:	8b 45 f4             	mov    -0xc(%ebp),%eax
 804abc3:	dd 84 c5 d8 fe ff ff 	fldl   -0x128(%ebp,%eax,8)
 804abca:	dd 5d 88             	fstpl  -0x78(%ebp)
 804abcd:	8b 45 f4             	mov    -0xc(%ebp),%eax
 804abd0:	89 45 ec             	mov    %eax,-0x14(%ebp)
 804abd3:	8b 45 f4             	mov    -0xc(%ebp),%eax
 804abd6:	83 c0 01             	add    $0x1,%eax
 804abd9:	89 45 f0             	mov    %eax,-0x10(%ebp)
 804abdc:	eb 2f                	jmp    804ac0d <line_draw_aa+0x4f9>
 804abde:	8b 45 f0             	mov    -0x10(%ebp),%eax
 804abe1:	dd 84 c5 d8 fe ff ff 	fldl   -0x128(%ebp,%eax,8)
 804abe8:	dd 45 88             	fldl   -0x78(%ebp)
 804abeb:	df e9                	fucomip %st(1),%st
 804abed:	dd d8                	fstp   %st(0)
 804abef:	0f 97 c0             	seta   %al
 804abf2:	84 c0                	test   %al,%al
 804abf4:	74 13                	je     804ac09 <line_draw_aa+0x4f5>
 804abf6:	8b 45 f0             	mov    -0x10(%ebp),%eax
 804abf9:	dd 84 c5 d8 fe ff ff 	fldl   -0x128(%ebp,%eax,8)
 804ac00:	dd 5d 88             	fstpl  -0x78(%ebp)
 804ac03:	8b 45 f0             	mov    -0x10(%ebp),%eax
 804ac06:	89 45 ec             	mov    %eax,-0x14(%ebp)
 804ac09:	83 45 f0 01          	addl   $0x1,-0x10(%ebp)
 804ac0d:	83 7d f0 05          	cmpl   $0x5,-0x10(%ebp)
 804ac11:	7e cb                	jle    804abde <line_draw_aa+0x4ca>
 804ac13:	8b 45 ec             	mov    -0x14(%ebp),%eax
 804ac16:	8b 55 f4             	mov    -0xc(%ebp),%edx
 804ac19:	dd 84 d5 d8 fe ff ff 	fldl   -0x128(%ebp,%edx,8)
 804ac20:	dd 9c c5 d8 fe ff ff 	fstpl  -0x128(%ebp,%eax,8)
 804ac27:	8b 45 f4             	mov    -0xc(%ebp),%eax
 804ac2a:	dd 45 88             	fldl   -0x78(%ebp)
 804ac2d:	dd 9c c5 d8 fe ff ff 	fstpl  -0x128(%ebp,%eax,8)
 804ac34:	8b 45 ec             	mov    -0x14(%ebp),%eax
 804ac37:	8b 84 85 08 ff ff ff 	mov    -0xf8(%ebp,%eax,4),%eax
 804ac3e:	89 45 e8             	mov    %eax,-0x18(%ebp)
 804ac41:	8b 45 ec             	mov    -0x14(%ebp),%eax
 804ac44:	8b 55 f4             	mov    -0xc(%ebp),%edx
 804ac47:	8b 94 95 08 ff ff ff 	mov    -0xf8(%ebp,%edx,4),%edx
 804ac4e:	89 94 85 08 ff ff ff 	mov    %edx,-0xf8(%ebp,%eax,4)
 804ac55:	8b 45 f4             	mov    -0xc(%ebp),%eax
 804ac58:	8b 55 e8             	mov    -0x18(%ebp),%edx
 804ac5b:	89 94 85 08 ff ff ff 	mov    %edx,-0xf8(%ebp,%eax,4)
 804ac62:	83 45 f4 01          	addl   $0x1,-0xc(%ebp)
 804ac66:	83 7d f4 04          	cmpl   $0x4,-0xc(%ebp)
 804ac6a:	0f 8e 50 ff ff ff    	jle    804abc0 <line_draw_aa+0x4ac>
 804ac70:	8b 85 08 ff ff ff    	mov    -0xf8(%ebp),%eax
 804ac76:	83 f8 02             	cmp    $0x2,%eax
 804ac79:	0f 84 8f 00 00 00    	je     804ad0e <line_draw_aa+0x5fa>
 804ac7f:	83 f8 03             	cmp    $0x3,%eax
 804ac82:	0f 84 01 01 00 00    	je     804ad89 <line_draw_aa+0x675>
 804ac88:	83 f8 01             	cmp    $0x1,%eax
 804ac8b:	0f 85 6d 01 00 00    	jne    804adfe <line_draw_aa+0x6ea>
 804ac91:	8b 85 0c ff ff ff    	mov    -0xf4(%ebp),%eax
 804ac97:	83 f8 02             	cmp    $0x2,%eax
 804ac9a:	74 10                	je     804acac <line_draw_aa+0x598>
 804ac9c:	83 f8 03             	cmp    $0x3,%eax
 804ac9f:	74 1c                	je     804acbd <line_draw_aa+0x5a9>
 804aca1:	83 f8 01             	cmp    $0x1,%eax
 804aca4:	0f 84 ae 0a 00 00    	je     804b758 <line_draw_aa+0x1044>
 804acaa:	eb 22                	jmp    804acce <line_draw_aa+0x5ba>
 804acac:	8b 85 10 ff ff ff    	mov    -0xf0(%ebp),%eax
 804acb2:	83 f8 03             	cmp    $0x3,%eax
 804acb5:	0f 85 a0 0a 00 00    	jne    804b75b <line_draw_aa+0x1047>
 804acbb:	eb 4c                	jmp    804ad09 <line_draw_aa+0x5f5>
 804acbd:	8b 85 10 ff ff ff    	mov    -0xf0(%ebp),%eax
 804acc3:	83 f8 02             	cmp    $0x2,%eax
 804acc6:	0f 85 92 0a 00 00    	jne    804b75e <line_draw_aa+0x104a>
 804accc:	eb 3b                	jmp    804ad09 <line_draw_aa+0x5f5>
 804acce:	ba 48 ea 04 08       	mov    $0x804ea48,%edx
 804acd3:	a1 c0 00 05 08       	mov    0x80500c0,%eax
 804acd8:	c7 44 24 14 dd 00 00 	movl   $0xdd,0x14(%esp)
 804acdf:	00 
 804ace0:	c7 44 24 10 a7 ea 04 	movl   $0x804eaa7,0x10(%esp)
 804ace7:	08 
 804ace8:	c7 44 24 0c 64 ea 04 	movl   $0x804ea64,0xc(%esp)
 804acef:	08 
 804acf0:	c7 44 24 08 6f ea 04 	movl   $0x804ea6f,0x8(%esp)
 804acf7:	08 
 804acf8:	89 54 24 04          	mov    %edx,0x4(%esp)
 804acfc:	89 04 24             	mov    %eax,(%esp)
 804acff:	e8 d0 de ff ff       	call   8048bd4 <fprintf@plt>
 804ad04:	e9 2b 01 00 00       	jmp    804ae34 <line_draw_aa+0x720>
 804ad09:	e9 26 01 00 00       	jmp    804ae34 <line_draw_aa+0x720>
 804ad0e:	8b 85 0c ff ff ff    	mov    -0xf4(%ebp),%eax
 804ad14:	83 f8 02             	cmp    $0x2,%eax
 804ad17:	0f 84 44 0a 00 00    	je     804b761 <line_draw_aa+0x104d>
 804ad1d:	83 f8 03             	cmp    $0x3,%eax
 804ad20:	74 16                	je     804ad38 <line_draw_aa+0x624>
 804ad22:	83 f8 01             	cmp    $0x1,%eax
 804ad25:	75 22                	jne    804ad49 <line_draw_aa+0x635>
 804ad27:	8b 85 10 ff ff ff    	mov    -0xf0(%ebp),%eax
 804ad2d:	83 f8 03             	cmp    $0x3,%eax
 804ad30:	0f 85 2e 0a 00 00    	jne    804b764 <line_draw_aa+0x1050>
 804ad36:	eb 4c                	jmp    804ad84 <line_draw_aa+0x670>
 804ad38:	8b 85 10 ff ff ff    	mov    -0xf0(%ebp),%eax
 804ad3e:	83 f8 01             	cmp    $0x1,%eax
 804ad41:	0f 85 20 0a 00 00    	jne    804b767 <line_draw_aa+0x1053>
 804ad47:	eb 3b                	jmp    804ad84 <line_draw_aa+0x670>
 804ad49:	ba 48 ea 04 08       	mov    $0x804ea48,%edx
 804ad4e:	a1 c0 00 05 08       	mov    0x80500c0,%eax
 804ad53:	c7 44 24 14 f9 00 00 	movl   $0xf9,0x14(%esp)
 804ad5a:	00 
 804ad5b:	c7 44 24 10 a7 ea 04 	movl   $0x804eaa7,0x10(%esp)
 804ad62:	08 
 804ad63:	c7 44 24 0c 64 ea 04 	movl   $0x804ea64,0xc(%esp)
 804ad6a:	08 
 804ad6b:	c7 44 24 08 6f ea 04 	movl   $0x804ea6f,0x8(%esp)
 804ad72:	08 
 804ad73:	89 54 24 04          	mov    %edx,0x4(%esp)
 804ad77:	89 04 24             	mov    %eax,(%esp)
 804ad7a:	e8 55 de ff ff       	call   8048bd4 <fprintf@plt>
 804ad7f:	e9 b0 00 00 00       	jmp    804ae34 <line_draw_aa+0x720>
 804ad84:	e9 ab 00 00 00       	jmp    804ae34 <line_draw_aa+0x720>
 804ad89:	8b 85 0c ff ff ff    	mov    -0xf4(%ebp),%eax
 804ad8f:	83 f8 02             	cmp    $0x2,%eax
 804ad92:	74 1f                	je     804adb3 <line_draw_aa+0x69f>
 804ad94:	83 f8 03             	cmp    $0x3,%eax
 804ad97:	0f 84 cd 09 00 00    	je     804b76a <line_draw_aa+0x1056>
 804ad9d:	83 f8 01             	cmp    $0x1,%eax
 804ada0:	75 22                	jne    804adc4 <line_draw_aa+0x6b0>
 804ada2:	8b 85 10 ff ff ff    	mov    -0xf0(%ebp),%eax
 804ada8:	83 f8 02             	cmp    $0x2,%eax
 804adab:	0f 85 bc 09 00 00    	jne    804b76d <line_draw_aa+0x1059>
 804adb1:	eb 49                	jmp    804adfc <line_draw_aa+0x6e8>
 804adb3:	8b 85 10 ff ff ff    	mov    -0xf0(%ebp),%eax
 804adb9:	83 f8 01             	cmp    $0x1,%eax
 804adbc:	0f 85 ae 09 00 00    	jne    804b770 <line_draw_aa+0x105c>
 804adc2:	eb 38                	jmp    804adfc <line_draw_aa+0x6e8>
 804adc4:	ba 48 ea 04 08       	mov    $0x804ea48,%edx
 804adc9:	a1 c0 00 05 08       	mov    0x80500c0,%eax
 804adce:	c7 44 24 14 15 01 00 	movl   $0x115,0x14(%esp)
 804add5:	00 
 804add6:	c7 44 24 10 a7 ea 04 	movl   $0x804eaa7,0x10(%esp)
 804addd:	08 
 804adde:	c7 44 24 0c 64 ea 04 	movl   $0x804ea64,0xc(%esp)
 804ade5:	08 
 804ade6:	c7 44 24 08 6f ea 04 	movl   $0x804ea6f,0x8(%esp)
 804aded:	08 
 804adee:	89 54 24 04          	mov    %edx,0x4(%esp)
 804adf2:	89 04 24             	mov    %eax,(%esp)
 804adf5:	e8 da dd ff ff       	call   8048bd4 <fprintf@plt>
 804adfa:	eb 38                	jmp    804ae34 <line_draw_aa+0x720>
 804adfc:	eb 36                	jmp    804ae34 <line_draw_aa+0x720>
 804adfe:	ba 77 ea 04 08       	mov    $0x804ea77,%edx
 804ae03:	a1 c0 00 05 08       	mov    0x80500c0,%eax
 804ae08:	c7 44 24 14 1a 01 00 	movl   $0x11a,0x14(%esp)
 804ae0f:	00 
 804ae10:	c7 44 24 10 a7 ea 04 	movl   $0x804eaa7,0x10(%esp)
 804ae17:	08 
 804ae18:	c7 44 24 0c 64 ea 04 	movl   $0x804ea64,0xc(%esp)
 804ae1f:	08 
 804ae20:	c7 44 24 08 6f ea 04 	movl   $0x804ea6f,0x8(%esp)
 804ae27:	08 
 804ae28:	89 54 24 04          	mov    %edx,0x4(%esp)
 804ae2c:	89 04 24             	mov    %eax,(%esp)
 804ae2f:	e8 a0 dd ff ff       	call   8048bd4 <fprintf@plt>
 804ae34:	dd 85 e8 fe ff ff    	fldl   -0x118(%ebp)
 804ae3a:	dd 5d c8             	fstpl  -0x38(%ebp)
 804ae3d:	dd 45 c8             	fldl   -0x38(%ebp)
 804ae40:	dc 4d 98             	fmull  -0x68(%ebp)
 804ae43:	dc 45 90             	faddl  -0x70(%ebp)
 804ae46:	dd 5d c0             	fstpl  -0x40(%ebp)
 804ae49:	dd 85 f0 fe ff ff    	fldl   -0x110(%ebp)
 804ae4f:	dd 5d b8             	fstpl  -0x48(%ebp)
 804ae52:	dd 45 b8             	fldl   -0x48(%ebp)
 804ae55:	dc 4d 98             	fmull  -0x68(%ebp)
 804ae58:	dc 45 90             	faddl  -0x70(%ebp)
 804ae5b:	dd 5d b0             	fstpl  -0x50(%ebp)
 804ae5e:	dd 45 b8             	fldl   -0x48(%ebp)
 804ae61:	dc 65 c8             	fsubl  -0x38(%ebp)
 804ae64:	dd 5d 80             	fstpl  -0x80(%ebp)
 804ae67:	dd 45 b0             	fldl   -0x50(%ebp)
 804ae6a:	dc 65 c0             	fsubl  -0x40(%ebp)
 804ae6d:	dd 9d 78 ff ff ff    	fstpl  -0x88(%ebp)
 804ae73:	dd 85 78 ff ff ff    	fldl   -0x88(%ebp)
 804ae79:	d9 e1                	fabs   
 804ae7b:	dd 45 80             	fldl   -0x80(%ebp)
 804ae7e:	d9 e1                	fabs   
 804ae80:	d9 c9                	fxch   %st(1)
 804ae82:	df e9                	fucomip %st(1),%st
 804ae84:	dd d8                	fstp   %st(0)
 804ae86:	0f 97 c0             	seta   %al
 804ae89:	0f b6 c0             	movzbl %al,%eax
 804ae8c:	89 45 e4             	mov    %eax,-0x1c(%ebp)
 804ae8f:	83 7d e4 00          	cmpl   $0x0,-0x1c(%ebp)
 804ae93:	74 4e                	je     804aee3 <line_draw_aa+0x7cf>
 804ae95:	dd 45 c8             	fldl   -0x38(%ebp)
 804ae98:	dd 9d 70 ff ff ff    	fstpl  -0x90(%ebp)
 804ae9e:	dd 45 c0             	fldl   -0x40(%ebp)
 804aea1:	dd 5d c8             	fstpl  -0x38(%ebp)
 804aea4:	dd 85 70 ff ff ff    	fldl   -0x90(%ebp)
 804aeaa:	dd 5d c0             	fstpl  -0x40(%ebp)
 804aead:	dd 45 b8             	fldl   -0x48(%ebp)
 804aeb0:	dd 9d 70 ff ff ff    	fstpl  -0x90(%ebp)
 804aeb6:	dd 45 b0             	fldl   -0x50(%ebp)
 804aeb9:	dd 5d b8             	fstpl  -0x48(%ebp)
 804aebc:	dd 85 70 ff ff ff    	fldl   -0x90(%ebp)
 804aec2:	dd 5d b0             	fstpl  -0x50(%ebp)
 804aec5:	dd 45 80             	fldl   -0x80(%ebp)
 804aec8:	dd 9d 70 ff ff ff    	fstpl  -0x90(%ebp)
 804aece:	dd 85 78 ff ff ff    	fldl   -0x88(%ebp)
 804aed4:	dd 5d 80             	fstpl  -0x80(%ebp)
 804aed7:	dd 85 70 ff ff ff    	fldl   -0x90(%ebp)
 804aedd:	dd 9d 78 ff ff ff    	fstpl  -0x88(%ebp)
 804aee3:	dd 45 c8             	fldl   -0x38(%ebp)
 804aee6:	dd 45 b8             	fldl   -0x48(%ebp)
 804aee9:	d9 c9                	fxch   %st(1)
 804aeeb:	df e9                	fucomip %st(1),%st
 804aeed:	dd d8                	fstp   %st(0)
 804aeef:	0f 97 c0             	seta   %al
 804aef2:	84 c0                	test   %al,%al
 804aef4:	74 30                	je     804af26 <line_draw_aa+0x812>
 804aef6:	dd 45 c8             	fldl   -0x38(%ebp)
 804aef9:	dd 9d 70 ff ff ff    	fstpl  -0x90(%ebp)
 804aeff:	dd 45 b8             	fldl   -0x48(%ebp)
 804af02:	dd 5d c8             	fstpl  -0x38(%ebp)
 804af05:	dd 85 70 ff ff ff    	fldl   -0x90(%ebp)
 804af0b:	dd 5d b8             	fstpl  -0x48(%ebp)
 804af0e:	dd 45 c0             	fldl   -0x40(%ebp)
 804af11:	dd 9d 70 ff ff ff    	fstpl  -0x90(%ebp)
 804af17:	dd 45 b0             	fldl   -0x50(%ebp)
 804af1a:	dd 5d c0             	fstpl  -0x40(%ebp)
 804af1d:	dd 85 70 ff ff ff    	fldl   -0x90(%ebp)
 804af23:	dd 5d b0             	fstpl  -0x50(%ebp)
 804af26:	dd 45 80             	fldl   -0x80(%ebp)
 804af29:	d9 ee                	fldz   
 804af2b:	d9 c9                	fxch   %st(1)
 804af2d:	df e9                	fucomip %st(1),%st
 804af2f:	dd d8                	fstp   %st(0)
 804af31:	75 38                	jne    804af6b <line_draw_aa+0x857>
 804af33:	7a 36                	jp     804af6b <line_draw_aa+0x857>
 804af35:	ba 8f ea 04 08       	mov    $0x804ea8f,%edx
 804af3a:	a1 c0 00 05 08       	mov    0x80500c0,%eax
 804af3f:	c7 44 24 14 46 01 00 	movl   $0x146,0x14(%esp)
 804af46:	00 
 804af47:	c7 44 24 10 a7 ea 04 	movl   $0x804eaa7,0x10(%esp)
 804af4e:	08 
 804af4f:	c7 44 24 0c 64 ea 04 	movl   $0x804ea64,0xc(%esp)
 804af56:	08 
 804af57:	c7 44 24 08 6f ea 04 	movl   $0x804ea6f,0x8(%esp)
 804af5e:	08 
 804af5f:	89 54 24 04          	mov    %edx,0x4(%esp)
 804af63:	89 04 24             	mov    %eax,(%esp)
 804af66:	e8 69 dc ff ff       	call   8048bd4 <fprintf@plt>
 804af6b:	dd 85 78 ff ff ff    	fldl   -0x88(%ebp)
 804af71:	dc 75 80             	fdivl  -0x80(%ebp)
 804af74:	dd 9d 68 ff ff ff    	fstpl  -0x98(%ebp)
 804af7a:	dd 45 c8             	fldl   -0x38(%ebp)
 804af7d:	dd 1c 24             	fstpl  (%esp)
 804af80:	e8 9f da ff ff       	call   8048a24 <nearbyint@plt>
 804af85:	dd 9d 50 ff ff ff    	fstpl  -0xb0(%ebp)
 804af8b:	dd 85 50 ff ff ff    	fldl   -0xb0(%ebp)
 804af91:	dc 65 c8             	fsubl  -0x38(%ebp)
 804af94:	dc 8d 68 ff ff ff    	fmull  -0x98(%ebp)
 804af9a:	dc 45 c0             	faddl  -0x40(%ebp)
 804af9d:	dd 9d 48 ff ff ff    	fstpl  -0xb8(%ebp)
 804afa3:	dd 45 c8             	fldl   -0x38(%ebp)
 804afa6:	dd 05 b8 ea 04 08    	fldl   0x804eab8
 804afac:	de c1                	faddp  %st,%st(1)
 804afae:	8d 45 a0             	lea    -0x60(%ebp),%eax
 804afb1:	89 44 24 08          	mov    %eax,0x8(%esp)
 804afb5:	dd 1c 24             	fstpl  (%esp)
 804afb8:	e8 17 db ff ff       	call   8048ad4 <modf@plt>
 804afbd:	d9 e8                	fld1   
 804afbf:	de e1                	fsubp  %st,%st(1)
 804afc1:	dd 9d 38 ff ff ff    	fstpl  -0xc8(%ebp)
 804afc7:	dd 85 50 ff ff ff    	fldl   -0xb0(%ebp)
 804afcd:	d9 bd b6 fe ff ff    	fnstcw -0x14a(%ebp)
 804afd3:	0f b7 85 b6 fe ff ff 	movzwl -0x14a(%ebp),%eax
 804afda:	b4 0c                	mov    $0xc,%ah
 804afdc:	66 89 85 b4 fe ff ff 	mov    %ax,-0x14c(%ebp)
 804afe3:	d9 ad b4 fe ff ff    	fldcw  -0x14c(%ebp)
 804afe9:	db 5d e0             	fistpl -0x20(%ebp)
 804afec:	d9 ad b6 fe ff ff    	fldcw  -0x14a(%ebp)
 804aff2:	dd 85 48 ff ff ff    	fldl   -0xb8(%ebp)
 804aff8:	dd 1c 24             	fstpl  (%esp)
 804affb:	e8 c4 da ff ff       	call   8048ac4 <floor@plt>
 804b000:	d9 bd b6 fe ff ff    	fnstcw -0x14a(%ebp)
 804b006:	0f b7 85 b6 fe ff ff 	movzwl -0x14a(%ebp),%eax
 804b00d:	b4 0c                	mov    $0xc,%ah
 804b00f:	66 89 85 b4 fe ff ff 	mov    %ax,-0x14c(%ebp)
 804b016:	d9 ad b4 fe ff ff    	fldcw  -0x14c(%ebp)
 804b01c:	db 5d dc             	fistpl -0x24(%ebp)
 804b01f:	d9 ad b6 fe ff ff    	fldcw  -0x14a(%ebp)
 804b025:	dd 85 48 ff ff ff    	fldl   -0xb8(%ebp)
 804b02b:	dc 85 68 ff ff ff    	faddl  -0x98(%ebp)
 804b031:	dd 9d 60 ff ff ff    	fstpl  -0xa0(%ebp)
 804b037:	dd 45 b8             	fldl   -0x48(%ebp)
 804b03a:	dd 1c 24             	fstpl  (%esp)
 804b03d:	e8 e2 d9 ff ff       	call   8048a24 <nearbyint@plt>
 804b042:	dd 9d 50 ff ff ff    	fstpl  -0xb0(%ebp)
 804b048:	dd 85 50 ff ff ff    	fldl   -0xb0(%ebp)
 804b04e:	dc 65 b8             	fsubl  -0x48(%ebp)
 804b051:	dc 8d 68 ff ff ff    	fmull  -0x98(%ebp)
 804b057:	dc 45 b0             	faddl  -0x50(%ebp)
 804b05a:	dd 9d 40 ff ff ff    	fstpl  -0xc0(%ebp)
 804b060:	dd 45 b8             	fldl   -0x48(%ebp)
 804b063:	dd 05 b8 ea 04 08    	fldl   0x804eab8
 804b069:	de c1                	faddp  %st,%st(1)
 804b06b:	8d 45 a0             	lea    -0x60(%ebp),%eax
 804b06e:	89 44 24 08          	mov    %eax,0x8(%esp)
 804b072:	dd 1c 24             	fstpl  (%esp)
 804b075:	e8 5a da ff ff       	call   8048ad4 <modf@plt>
 804b07a:	dd 9d 30 ff ff ff    	fstpl  -0xd0(%ebp)
 804b080:	dd 85 50 ff ff ff    	fldl   -0xb0(%ebp)
 804b086:	d9 bd b6 fe ff ff    	fnstcw -0x14a(%ebp)
 804b08c:	0f b7 85 b6 fe ff ff 	movzwl -0x14a(%ebp),%eax
 804b093:	b4 0c                	mov    $0xc,%ah
 804b095:	66 89 85 b4 fe ff ff 	mov    %ax,-0x14c(%ebp)
 804b09c:	d9 ad b4 fe ff ff    	fldcw  -0x14c(%ebp)
 804b0a2:	db 5d d8             	fistpl -0x28(%ebp)
 804b0a5:	d9 ad b6 fe ff ff    	fldcw  -0x14a(%ebp)
 804b0ab:	dd 85 40 ff ff ff    	fldl   -0xc0(%ebp)
 804b0b1:	dd 1c 24             	fstpl  (%esp)
 804b0b4:	e8 0b da ff ff       	call   8048ac4 <floor@plt>
 804b0b9:	d9 bd b6 fe ff ff    	fnstcw -0x14a(%ebp)
 804b0bf:	0f b7 85 b6 fe ff ff 	movzwl -0x14a(%ebp),%eax
 804b0c6:	b4 0c                	mov    $0xc,%ah
 804b0c8:	66 89 85 b4 fe ff ff 	mov    %ax,-0x14c(%ebp)
 804b0cf:	d9 ad b4 fe ff ff    	fldcw  -0x14c(%ebp)
 804b0d5:	db 5d d4             	fistpl -0x2c(%ebp)
 804b0d8:	d9 ad b6 fe ff ff    	fldcw  -0x14a(%ebp)
 804b0de:	83 7d e4 00          	cmpl   $0x0,-0x1c(%ebp)
 804b0e2:	0f 84 76 02 00 00    	je     804b35e <line_draw_aa+0xc4a>
 804b0e8:	83 7d 2c 00          	cmpl   $0x0,0x2c(%ebp)
 804b0ec:	0f 84 38 01 00 00    	je     804b22a <line_draw_aa+0xb16>
 804b0f2:	8d 45 a0             	lea    -0x60(%ebp),%eax
 804b0f5:	89 44 24 08          	mov    %eax,0x8(%esp)
 804b0f9:	dd 85 48 ff ff ff    	fldl   -0xb8(%ebp)
 804b0ff:	dd 1c 24             	fstpl  (%esp)
 804b102:	e8 cd d9 ff ff       	call   8048ad4 <modf@plt>
 804b107:	dd 9d 58 ff ff ff    	fstpl  -0xa8(%ebp)
 804b10d:	dd 85 58 ff ff ff    	fldl   -0xa8(%ebp)
 804b113:	dc 8d 38 ff ff ff    	fmull  -0xc8(%ebp)
 804b119:	d9 c0                	fld    %st(0)
 804b11b:	d9 fa                	fsqrt  
 804b11d:	db e8                	fucomi %st(0),%st
 804b11f:	7a 06                	jp     804b127 <line_draw_aa+0xa13>
 804b121:	74 10                	je     804b133 <line_draw_aa+0xa1f>
 804b123:	dd d8                	fstp   %st(0)
 804b125:	eb 02                	jmp    804b129 <line_draw_aa+0xa15>
 804b127:	dd d8                	fstp   %st(0)
 804b129:	dd 1c 24             	fstpl  (%esp)
 804b12c:	e8 e3 d9 ff ff       	call   8048b14 <sqrt@plt>
 804b131:	eb 02                	jmp    804b135 <line_draw_aa+0xa21>
 804b133:	dd d9                	fstp   %st(1)
 804b135:	dd 9d 28 ff ff ff    	fstpl  -0xd8(%ebp)
 804b13b:	d9 e8                	fld1   
 804b13d:	dc a5 58 ff ff ff    	fsubl  -0xa8(%ebp)
 804b143:	dc 8d 38 ff ff ff    	fmull  -0xc8(%ebp)
 804b149:	dd 1c 24             	fstpl  (%esp)
 804b14c:	e8 c3 d9 ff ff       	call   8048b14 <sqrt@plt>
 804b151:	dd 9d 20 ff ff ff    	fstpl  -0xe0(%ebp)
 804b157:	a1 70 06 05 08       	mov    0x8050670,%eax
 804b15c:	83 e8 01             	sub    $0x1,%eax
 804b15f:	3b 45 dc             	cmp    -0x24(%ebp),%eax
 804b162:	75 38                	jne    804b19c <line_draw_aa+0xa88>
 804b164:	8b 45 28             	mov    0x28(%ebp),%eax
 804b167:	89 44 24 20          	mov    %eax,0x20(%esp)
 804b16b:	d9 ee                	fldz   
 804b16d:	dd 5c 24 18          	fstpl  0x18(%esp)
 804b171:	d9 e8                	fld1   
 804b173:	dd 5c 24 10          	fstpl  0x10(%esp)
 804b177:	8b 45 e0             	mov    -0x20(%ebp),%eax
 804b17a:	89 44 24 0c          	mov    %eax,0xc(%esp)
 804b17e:	8b 45 dc             	mov    -0x24(%ebp),%eax
 804b181:	89 44 24 08          	mov    %eax,0x8(%esp)
 804b185:	8b 45 e0             	mov    -0x20(%ebp),%eax
 804b188:	89 44 24 04          	mov    %eax,0x4(%esp)
 804b18c:	8b 45 dc             	mov    -0x24(%ebp),%eax
 804b18f:	89 04 24             	mov    %eax,(%esp)
 804b192:	e8 dc 05 00 00       	call   804b773 <pixel_draw_aa>
 804b197:	e9 8e 00 00 00       	jmp    804b22a <line_draw_aa+0xb16>
 804b19c:	83 7d dc ff          	cmpl   $0xffffffff,-0x24(%ebp)
 804b1a0:	75 37                	jne    804b1d9 <line_draw_aa+0xac5>
 804b1a2:	8b 45 28             	mov    0x28(%ebp),%eax
 804b1a5:	89 44 24 20          	mov    %eax,0x20(%esp)
 804b1a9:	d9 ee                	fldz   
 804b1ab:	dd 5c 24 18          	fstpl  0x18(%esp)
 804b1af:	d9 e8                	fld1   
 804b1b1:	dd 5c 24 10          	fstpl  0x10(%esp)
 804b1b5:	8b 45 e0             	mov    -0x20(%ebp),%eax
 804b1b8:	89 44 24 0c          	mov    %eax,0xc(%esp)
 804b1bc:	c7 44 24 08 00 00 00 	movl   $0x0,0x8(%esp)
 804b1c3:	00 
 804b1c4:	8b 45 e0             	mov    -0x20(%ebp),%eax
 804b1c7:	89 44 24 04          	mov    %eax,0x4(%esp)
 804b1cb:	c7 04 24 00 00 00 00 	movl   $0x0,(%esp)
 804b1d2:	e8 9c 05 00 00       	call   804b773 <pixel_draw_aa>
 804b1d7:	eb 51                	jmp    804b22a <line_draw_aa+0xb16>
 804b1d9:	83 7d dc ff          	cmpl   $0xffffffff,-0x24(%ebp)
 804b1dd:	7c 4b                	jl     804b22a <line_draw_aa+0xb16>
 804b1df:	a1 70 06 05 08       	mov    0x8050670,%eax
 804b1e4:	83 e8 01             	sub    $0x1,%eax
 804b1e7:	3b 45 dc             	cmp    -0x24(%ebp),%eax
 804b1ea:	7c 3e                	jl     804b22a <line_draw_aa+0xb16>
 804b1ec:	8b 45 dc             	mov    -0x24(%ebp),%eax
 804b1ef:	8d 50 01             	lea    0x1(%eax),%edx
 804b1f2:	8b 45 28             	mov    0x28(%ebp),%eax
 804b1f5:	89 44 24 20          	mov    %eax,0x20(%esp)
 804b1f9:	dd 85 28 ff ff ff    	fldl   -0xd8(%ebp)
 804b1ff:	dd 5c 24 18          	fstpl  0x18(%esp)
 804b203:	dd 85 20 ff ff ff    	fldl   -0xe0(%ebp)
 804b209:	dd 5c 24 10          	fstpl  0x10(%esp)
 804b20d:	8b 45 e0             	mov    -0x20(%ebp),%eax
 804b210:	89 44 24 0c          	mov    %eax,0xc(%esp)
 804b214:	89 54 24 08          	mov    %edx,0x8(%esp)
 804b218:	8b 45 e0             	mov    -0x20(%ebp),%eax
 804b21b:	89 44 24 04          	mov    %eax,0x4(%esp)
 804b21f:	8b 45 dc             	mov    -0x24(%ebp),%eax
 804b222:	89 04 24             	mov    %eax,(%esp)
 804b225:	e8 49 05 00 00       	call   804b773 <pixel_draw_aa>
 804b22a:	8d 45 a0             	lea    -0x60(%ebp),%eax
 804b22d:	89 44 24 08          	mov    %eax,0x8(%esp)
 804b231:	dd 85 40 ff ff ff    	fldl   -0xc0(%ebp)
 804b237:	dd 1c 24             	fstpl  (%esp)
 804b23a:	e8 95 d8 ff ff       	call   8048ad4 <modf@plt>
 804b23f:	dd 9d 58 ff ff ff    	fstpl  -0xa8(%ebp)
 804b245:	dd 85 58 ff ff ff    	fldl   -0xa8(%ebp)
 804b24b:	dc 8d 30 ff ff ff    	fmull  -0xd0(%ebp)
 804b251:	dd 1c 24             	fstpl  (%esp)
 804b254:	e8 bb d8 ff ff       	call   8048b14 <sqrt@plt>
 804b259:	dd 9d 28 ff ff ff    	fstpl  -0xd8(%ebp)
 804b25f:	d9 e8                	fld1   
 804b261:	dc a5 58 ff ff ff    	fsubl  -0xa8(%ebp)
 804b267:	dc 8d 30 ff ff ff    	fmull  -0xd0(%ebp)
 804b26d:	dd 1c 24             	fstpl  (%esp)
 804b270:	e8 9f d8 ff ff       	call   8048b14 <sqrt@plt>
 804b275:	dd 9d 20 ff ff ff    	fstpl  -0xe0(%ebp)
 804b27b:	a1 70 06 05 08       	mov    0x8050670,%eax
 804b280:	83 e8 01             	sub    $0x1,%eax
 804b283:	3b 45 d4             	cmp    -0x2c(%ebp),%eax
 804b286:	75 38                	jne    804b2c0 <line_draw_aa+0xbac>
 804b288:	8b 45 28             	mov    0x28(%ebp),%eax
 804b28b:	89 44 24 20          	mov    %eax,0x20(%esp)
 804b28f:	d9 ee                	fldz   
 804b291:	dd 5c 24 18          	fstpl  0x18(%esp)
 804b295:	d9 e8                	fld1   
 804b297:	dd 5c 24 10          	fstpl  0x10(%esp)
 804b29b:	8b 45 d8             	mov    -0x28(%ebp),%eax
 804b29e:	89 44 24 0c          	mov    %eax,0xc(%esp)
 804b2a2:	8b 45 d4             	mov    -0x2c(%ebp),%eax
 804b2a5:	89 44 24 08          	mov    %eax,0x8(%esp)
 804b2a9:	8b 45 d8             	mov    -0x28(%ebp),%eax
 804b2ac:	89 44 24 04          	mov    %eax,0x4(%esp)
 804b2b0:	8b 45 d4             	mov    -0x2c(%ebp),%eax
 804b2b3:	89 04 24             	mov    %eax,(%esp)
 804b2b6:	e8 b8 04 00 00       	call   804b773 <pixel_draw_aa>
 804b2bb:	e9 f0 02 00 00       	jmp    804b5b0 <line_draw_aa+0xe9c>
 804b2c0:	83 7d d4 ff          	cmpl   $0xffffffff,-0x2c(%ebp)
 804b2c4:	75 3a                	jne    804b300 <line_draw_aa+0xbec>
 804b2c6:	8b 45 28             	mov    0x28(%ebp),%eax
 804b2c9:	89 44 24 20          	mov    %eax,0x20(%esp)
 804b2cd:	d9 ee                	fldz   
 804b2cf:	dd 5c 24 18          	fstpl  0x18(%esp)
 804b2d3:	d9 e8                	fld1   
 804b2d5:	dd 5c 24 10          	fstpl  0x10(%esp)
 804b2d9:	8b 45 d8             	mov    -0x28(%ebp),%eax
 804b2dc:	89 44 24 0c          	mov    %eax,0xc(%esp)
 804b2e0:	c7 44 24 08 00 00 00 	movl   $0x0,0x8(%esp)
 804b2e7:	00 
 804b2e8:	8b 45 d8             	mov    -0x28(%ebp),%eax
 804b2eb:	89 44 24 04          	mov    %eax,0x4(%esp)
 804b2ef:	c7 04 24 00 00 00 00 	movl   $0x0,(%esp)
 804b2f6:	e8 78 04 00 00       	call   804b773 <pixel_draw_aa>
 804b2fb:	e9 b0 02 00 00       	jmp    804b5b0 <line_draw_aa+0xe9c>
 804b300:	83 7d d4 ff          	cmpl   $0xffffffff,-0x2c(%ebp)
 804b304:	0f 8c a6 02 00 00    	jl     804b5b0 <line_draw_aa+0xe9c>
 804b30a:	a1 70 06 05 08       	mov    0x8050670,%eax
 804b30f:	83 e8 01             	sub    $0x1,%eax
 804b312:	3b 45 d4             	cmp    -0x2c(%ebp),%eax
 804b315:	0f 8c 95 02 00 00    	jl     804b5b0 <line_draw_aa+0xe9c>
 804b31b:	8b 45 d4             	mov    -0x2c(%ebp),%eax
 804b31e:	8d 50 01             	lea    0x1(%eax),%edx
 804b321:	8b 45 28             	mov    0x28(%ebp),%eax
 804b324:	89 44 24 20          	mov    %eax,0x20(%esp)
 804b328:	dd 85 28 ff ff ff    	fldl   -0xd8(%ebp)
 804b32e:	dd 5c 24 18          	fstpl  0x18(%esp)
 804b332:	dd 85 20 ff ff ff    	fldl   -0xe0(%ebp)
 804b338:	dd 5c 24 10          	fstpl  0x10(%esp)
 804b33c:	8b 45 d8             	mov    -0x28(%ebp),%eax
 804b33f:	89 44 24 0c          	mov    %eax,0xc(%esp)
 804b343:	89 54 24 08          	mov    %edx,0x8(%esp)
 804b347:	8b 45 d8             	mov    -0x28(%ebp),%eax
 804b34a:	89 44 24 04          	mov    %eax,0x4(%esp)
 804b34e:	8b 45 d4             	mov    -0x2c(%ebp),%eax
 804b351:	89 04 24             	mov    %eax,(%esp)
 804b354:	e8 1a 04 00 00       	call   804b773 <pixel_draw_aa>
 804b359:	e9 52 02 00 00       	jmp    804b5b0 <line_draw_aa+0xe9c>
 804b35e:	83 7d 2c 00          	cmpl   $0x0,0x2c(%ebp)
 804b362:	0f 84 24 01 00 00    	je     804b48c <line_draw_aa+0xd78>
 804b368:	8d 45 a0             	lea    -0x60(%ebp),%eax
 804b36b:	89 44 24 08          	mov    %eax,0x8(%esp)
 804b36f:	dd 85 48 ff ff ff    	fldl   -0xb8(%ebp)
 804b375:	dd 1c 24             	fstpl  (%esp)
 804b378:	e8 57 d7 ff ff       	call   8048ad4 <modf@plt>
 804b37d:	dd 9d 58 ff ff ff    	fstpl  -0xa8(%ebp)
 804b383:	dd 85 58 ff ff ff    	fldl   -0xa8(%ebp)
 804b389:	dc 8d 38 ff ff ff    	fmull  -0xc8(%ebp)
 804b38f:	dd 1c 24             	fstpl  (%esp)
 804b392:	e8 7d d7 ff ff       	call   8048b14 <sqrt@plt>
 804b397:	dd 9d 28 ff ff ff    	fstpl  -0xd8(%ebp)
 804b39d:	d9 e8                	fld1   
 804b39f:	dc a5 58 ff ff ff    	fsubl  -0xa8(%ebp)
 804b3a5:	dc 8d 38 ff ff ff    	fmull  -0xc8(%ebp)
 804b3ab:	dd 1c 24             	fstpl  (%esp)
 804b3ae:	e8 61 d7 ff ff       	call   8048b14 <sqrt@plt>
 804b3b3:	dd 9d 20 ff ff ff    	fstpl  -0xe0(%ebp)
 804b3b9:	a1 5c 06 05 08       	mov    0x805065c,%eax
 804b3be:	83 e8 01             	sub    $0x1,%eax
 804b3c1:	3b 45 dc             	cmp    -0x24(%ebp),%eax
 804b3c4:	75 38                	jne    804b3fe <line_draw_aa+0xcea>
 804b3c6:	8b 45 28             	mov    0x28(%ebp),%eax
 804b3c9:	89 44 24 20          	mov    %eax,0x20(%esp)
 804b3cd:	d9 ee                	fldz   
 804b3cf:	dd 5c 24 18          	fstpl  0x18(%esp)
 804b3d3:	d9 e8                	fld1   
 804b3d5:	dd 5c 24 10          	fstpl  0x10(%esp)
 804b3d9:	8b 45 dc             	mov    -0x24(%ebp),%eax
 804b3dc:	89 44 24 0c          	mov    %eax,0xc(%esp)
 804b3e0:	8b 45 e0             	mov    -0x20(%ebp),%eax
 804b3e3:	89 44 24 08          	mov    %eax,0x8(%esp)
 804b3e7:	8b 45 dc             	mov    -0x24(%ebp),%eax
 804b3ea:	89 44 24 04          	mov    %eax,0x4(%esp)
 804b3ee:	8b 45 e0             	mov    -0x20(%ebp),%eax
 804b3f1:	89 04 24             	mov    %eax,(%esp)
 804b3f4:	e8 7a 03 00 00       	call   804b773 <pixel_draw_aa>
 804b3f9:	e9 8e 00 00 00       	jmp    804b48c <line_draw_aa+0xd78>
 804b3fe:	83 7d dc ff          	cmpl   $0xffffffff,-0x24(%ebp)
 804b402:	75 37                	jne    804b43b <line_draw_aa+0xd27>
 804b404:	8b 45 28             	mov    0x28(%ebp),%eax
 804b407:	89 44 24 20          	mov    %eax,0x20(%esp)
 804b40b:	d9 ee                	fldz   
 804b40d:	dd 5c 24 18          	fstpl  0x18(%esp)
 804b411:	d9 e8                	fld1   
 804b413:	dd 5c 24 10          	fstpl  0x10(%esp)
 804b417:	c7 44 24 0c 00 00 00 	movl   $0x0,0xc(%esp)
 804b41e:	00 
 804b41f:	8b 45 e0             	mov    -0x20(%ebp),%eax
 804b422:	89 44 24 08          	mov    %eax,0x8(%esp)
 804b426:	c7 44 24 04 00 00 00 	movl   $0x0,0x4(%esp)
 804b42d:	00 
 804b42e:	8b 45 e0             	mov    -0x20(%ebp),%eax
 804b431:	89 04 24             	mov    %eax,(%esp)
 804b434:	e8 3a 03 00 00       	call   804b773 <pixel_draw_aa>
 804b439:	eb 51                	jmp    804b48c <line_draw_aa+0xd78>
 804b43b:	83 7d dc ff          	cmpl   $0xffffffff,-0x24(%ebp)
 804b43f:	7c 4b                	jl     804b48c <line_draw_aa+0xd78>
 804b441:	a1 5c 06 05 08       	mov    0x805065c,%eax
 804b446:	83 e8 01             	sub    $0x1,%eax
 804b449:	3b 45 dc             	cmp    -0x24(%ebp),%eax
 804b44c:	7c 3e                	jl     804b48c <line_draw_aa+0xd78>
 804b44e:	8b 45 dc             	mov    -0x24(%ebp),%eax
 804b451:	8d 50 01             	lea    0x1(%eax),%edx
 804b454:	8b 45 28             	mov    0x28(%ebp),%eax
 804b457:	89 44 24 20          	mov    %eax,0x20(%esp)
 804b45b:	dd 85 28 ff ff ff    	fldl   -0xd8(%ebp)
 804b461:	dd 5c 24 18          	fstpl  0x18(%esp)
 804b465:	dd 85 20 ff ff ff    	fldl   -0xe0(%ebp)
 804b46b:	dd 5c 24 10          	fstpl  0x10(%esp)
 804b46f:	89 54 24 0c          	mov    %edx,0xc(%esp)
 804b473:	8b 45 e0             	mov    -0x20(%ebp),%eax
 804b476:	89 44 24 08          	mov    %eax,0x8(%esp)
 804b47a:	8b 45 dc             	mov    -0x24(%ebp),%eax
 804b47d:	89 44 24 04          	mov    %eax,0x4(%esp)
 804b481:	8b 45 e0             	mov    -0x20(%ebp),%eax
 804b484:	89 04 24             	mov    %eax,(%esp)
 804b487:	e8 e7 02 00 00       	call   804b773 <pixel_draw_aa>
 804b48c:	8d 45 a0             	lea    -0x60(%ebp),%eax
 804b48f:	89 44 24 08          	mov    %eax,0x8(%esp)
 804b493:	dd 85 40 ff ff ff    	fldl   -0xc0(%ebp)
 804b499:	dd 1c 24             	fstpl  (%esp)
 804b49c:	e8 33 d6 ff ff       	call   8048ad4 <modf@plt>
 804b4a1:	dd 9d 58 ff ff ff    	fstpl  -0xa8(%ebp)
 804b4a7:	dd 85 58 ff ff ff    	fldl   -0xa8(%ebp)
 804b4ad:	dc 8d 30 ff ff ff    	fmull  -0xd0(%ebp)
 804b4b3:	dd 1c 24             	fstpl  (%esp)
 804b4b6:	e8 59 d6 ff ff       	call   8048b14 <sqrt@plt>
 804b4bb:	dd 9d 28 ff ff ff    	fstpl  -0xd8(%ebp)
 804b4c1:	d9 e8                	fld1   
 804b4c3:	dc a5 58 ff ff ff    	fsubl  -0xa8(%ebp)
 804b4c9:	dc 8d 30 ff ff ff    	fmull  -0xd0(%ebp)
 804b4cf:	dd 1c 24             	fstpl  (%esp)
 804b4d2:	e8 3d d6 ff ff       	call   8048b14 <sqrt@plt>
 804b4d7:	dd 9d 20 ff ff ff    	fstpl  -0xe0(%ebp)
 804b4dd:	a1 5c 06 05 08       	mov    0x805065c,%eax
 804b4e2:	83 e8 01             	sub    $0x1,%eax
 804b4e5:	3b 45 d4             	cmp    -0x2c(%ebp),%eax
 804b4e8:	75 38                	jne    804b522 <line_draw_aa+0xe0e>
 804b4ea:	8b 45 28             	mov    0x28(%ebp),%eax
 804b4ed:	89 44 24 20          	mov    %eax,0x20(%esp)
 804b4f1:	d9 ee                	fldz   
 804b4f3:	dd 5c 24 18          	fstpl  0x18(%esp)
 804b4f7:	d9 e8                	fld1   
 804b4f9:	dd 5c 24 10          	fstpl  0x10(%esp)
 804b4fd:	8b 45 d4             	mov    -0x2c(%ebp),%eax
 804b500:	89 44 24 0c          	mov    %eax,0xc(%esp)
 804b504:	8b 45 d8             	mov    -0x28(%ebp),%eax
 804b507:	89 44 24 08          	mov    %eax,0x8(%esp)
 804b50b:	8b 45 d4             	mov    -0x2c(%ebp),%eax
 804b50e:	89 44 24 04          	mov    %eax,0x4(%esp)
 804b512:	8b 45 d8             	mov    -0x28(%ebp),%eax
 804b515:	89 04 24             	mov    %eax,(%esp)
 804b518:	e8 56 02 00 00       	call   804b773 <pixel_draw_aa>
 804b51d:	e9 8e 00 00 00       	jmp    804b5b0 <line_draw_aa+0xe9c>
 804b522:	83 7d d4 ff          	cmpl   $0xffffffff,-0x2c(%ebp)
 804b526:	75 37                	jne    804b55f <line_draw_aa+0xe4b>
 804b528:	8b 45 28             	mov    0x28(%ebp),%eax
 804b52b:	89 44 24 20          	mov    %eax,0x20(%esp)
 804b52f:	d9 ee                	fldz   
 804b531:	dd 5c 24 18          	fstpl  0x18(%esp)
 804b535:	d9 e8                	fld1   
 804b537:	dd 5c 24 10          	fstpl  0x10(%esp)
 804b53b:	c7 44 24 0c 00 00 00 	movl   $0x0,0xc(%esp)
 804b542:	00 
 804b543:	8b 45 d8             	mov    -0x28(%ebp),%eax
 804b546:	89 44 24 08          	mov    %eax,0x8(%esp)
 804b54a:	c7 44 24 04 00 00 00 	movl   $0x0,0x4(%esp)
 804b551:	00 
 804b552:	8b 45 d8             	mov    -0x28(%ebp),%eax
 804b555:	89 04 24             	mov    %eax,(%esp)
 804b558:	e8 16 02 00 00       	call   804b773 <pixel_draw_aa>
 804b55d:	eb 51                	jmp    804b5b0 <line_draw_aa+0xe9c>
 804b55f:	83 7d d4 ff          	cmpl   $0xffffffff,-0x2c(%ebp)
 804b563:	7c 4b                	jl     804b5b0 <line_draw_aa+0xe9c>
 804b565:	a1 5c 06 05 08       	mov    0x805065c,%eax
 804b56a:	83 e8 01             	sub    $0x1,%eax
 804b56d:	3b 45 d4             	cmp    -0x2c(%ebp),%eax
 804b570:	7c 3e                	jl     804b5b0 <line_draw_aa+0xe9c>
 804b572:	8b 45 d4             	mov    -0x2c(%ebp),%eax
 804b575:	8d 50 01             	lea    0x1(%eax),%edx
 804b578:	8b 45 28             	mov    0x28(%ebp),%eax
 804b57b:	89 44 24 20          	mov    %eax,0x20(%esp)
 804b57f:	dd 85 28 ff ff ff    	fldl   -0xd8(%ebp)
 804b585:	dd 5c 24 18          	fstpl  0x18(%esp)
 804b589:	dd 85 20 ff ff ff    	fldl   -0xe0(%ebp)
 804b58f:	dd 5c 24 10          	fstpl  0x10(%esp)
 804b593:	89 54 24 0c          	mov    %edx,0xc(%esp)
 804b597:	8b 45 d8             	mov    -0x28(%ebp),%eax
 804b59a:	89 44 24 08          	mov    %eax,0x8(%esp)
 804b59e:	8b 45 d4             	mov    -0x2c(%ebp),%eax
 804b5a1:	89 44 24 04          	mov    %eax,0x4(%esp)
 804b5a5:	8b 45 d8             	mov    -0x28(%ebp),%eax
 804b5a8:	89 04 24             	mov    %eax,(%esp)
 804b5ab:	e8 c3 01 00 00       	call   804b773 <pixel_draw_aa>
 804b5b0:	8b 45 e0             	mov    -0x20(%ebp),%eax
 804b5b3:	83 c0 01             	add    $0x1,%eax
 804b5b6:	89 45 d0             	mov    %eax,-0x30(%ebp)
 804b5b9:	e9 74 01 00 00       	jmp    804b732 <line_draw_aa+0x101e>
 804b5be:	8d 45 a0             	lea    -0x60(%ebp),%eax
 804b5c1:	89 44 24 08          	mov    %eax,0x8(%esp)
 804b5c5:	dd 85 60 ff ff ff    	fldl   -0xa0(%ebp)
 804b5cb:	dd 1c 24             	fstpl  (%esp)
 804b5ce:	e8 01 d5 ff ff       	call   8048ad4 <modf@plt>
 804b5d3:	dd 9d 58 ff ff ff    	fstpl  -0xa8(%ebp)
 804b5d9:	dd 85 58 ff ff ff    	fldl   -0xa8(%ebp)
 804b5df:	dd 1c 24             	fstpl  (%esp)
 804b5e2:	e8 2d d5 ff ff       	call   8048b14 <sqrt@plt>
 804b5e7:	dd 9d 28 ff ff ff    	fstpl  -0xd8(%ebp)
 804b5ed:	d9 e8                	fld1   
 804b5ef:	dc a5 58 ff ff ff    	fsubl  -0xa8(%ebp)
 804b5f5:	dd 1c 24             	fstpl  (%esp)
 804b5f8:	e8 17 d5 ff ff       	call   8048b14 <sqrt@plt>
 804b5fd:	dd 9d 20 ff ff ff    	fstpl  -0xe0(%ebp)
 804b603:	83 7d e4 00          	cmpl   $0x0,-0x1c(%ebp)
 804b607:	0f 84 8a 00 00 00    	je     804b697 <line_draw_aa+0xf83>
 804b60d:	dd 45 a0             	fldl   -0x60(%ebp)
 804b610:	d9 e8                	fld1   
 804b612:	de c1                	faddp  %st,%st(1)
 804b614:	d9 bd b6 fe ff ff    	fnstcw -0x14a(%ebp)
 804b61a:	0f b7 85 b6 fe ff ff 	movzwl -0x14a(%ebp),%eax
 804b621:	b4 0c                	mov    $0xc,%ah
 804b623:	66 89 85 b4 fe ff ff 	mov    %ax,-0x14c(%ebp)
 804b62a:	d9 ad b4 fe ff ff    	fldcw  -0x14c(%ebp)
 804b630:	db 9d b0 fe ff ff    	fistpl -0x150(%ebp)
 804b636:	d9 ad b6 fe ff ff    	fldcw  -0x14a(%ebp)
 804b63c:	8b 95 b0 fe ff ff    	mov    -0x150(%ebp),%edx
 804b642:	dd 45 a0             	fldl   -0x60(%ebp)
 804b645:	d9 ad b4 fe ff ff    	fldcw  -0x14c(%ebp)
 804b64b:	db 9d b0 fe ff ff    	fistpl -0x150(%ebp)
 804b651:	d9 ad b6 fe ff ff    	fldcw  -0x14a(%ebp)
 804b657:	8b 85 b0 fe ff ff    	mov    -0x150(%ebp),%eax
 804b65d:	8b 4d 28             	mov    0x28(%ebp),%ecx
 804b660:	89 4c 24 20          	mov    %ecx,0x20(%esp)
 804b664:	dd 85 28 ff ff ff    	fldl   -0xd8(%ebp)
 804b66a:	dd 5c 24 18          	fstpl  0x18(%esp)
 804b66e:	dd 85 20 ff ff ff    	fldl   -0xe0(%ebp)
 804b674:	dd 5c 24 10          	fstpl  0x10(%esp)
 804b678:	8b 4d d0             	mov    -0x30(%ebp),%ecx
 804b67b:	89 4c 24 0c          	mov    %ecx,0xc(%esp)
 804b67f:	89 54 24 08          	mov    %edx,0x8(%esp)
 804b683:	8b 55 d0             	mov    -0x30(%ebp),%edx
 804b686:	89 54 24 04          	mov    %edx,0x4(%esp)
 804b68a:	89 04 24             	mov    %eax,(%esp)
 804b68d:	e8 e1 00 00 00       	call   804b773 <pixel_draw_aa>
 804b692:	e9 85 00 00 00       	jmp    804b71c <line_draw_aa+0x1008>
 804b697:	dd 45 a0             	fldl   -0x60(%ebp)
 804b69a:	d9 e8                	fld1   
 804b69c:	de c1                	faddp  %st,%st(1)
 804b69e:	d9 bd b6 fe ff ff    	fnstcw -0x14a(%ebp)
 804b6a4:	0f b7 85 b6 fe ff ff 	movzwl -0x14a(%ebp),%eax
 804b6ab:	b4 0c                	mov    $0xc,%ah
 804b6ad:	66 89 85 b4 fe ff ff 	mov    %ax,-0x14c(%ebp)
 804b6b4:	d9 ad b4 fe ff ff    	fldcw  -0x14c(%ebp)
 804b6ba:	db 9d b0 fe ff ff    	fistpl -0x150(%ebp)
 804b6c0:	d9 ad b6 fe ff ff    	fldcw  -0x14a(%ebp)
 804b6c6:	8b 95 b0 fe ff ff    	mov    -0x150(%ebp),%edx
 804b6cc:	dd 45 a0             	fldl   -0x60(%ebp)
 804b6cf:	d9 ad b4 fe ff ff    	fldcw  -0x14c(%ebp)
 804b6d5:	db 9d b0 fe ff ff    	fistpl -0x150(%ebp)
 804b6db:	d9 ad b6 fe ff ff    	fldcw  -0x14a(%ebp)
 804b6e1:	8b 85 b0 fe ff ff    	mov    -0x150(%ebp),%eax
 804b6e7:	8b 4d 28             	mov    0x28(%ebp),%ecx
 804b6ea:	89 4c 24 20          	mov    %ecx,0x20(%esp)
 804b6ee:	dd 85 28 ff ff ff    	fldl   -0xd8(%ebp)
 804b6f4:	dd 5c 24 18          	fstpl  0x18(%esp)
 804b6f8:	dd 85 20 ff ff ff    	fldl   -0xe0(%ebp)
 804b6fe:	dd 5c 24 10          	fstpl  0x10(%esp)
 804b702:	89 54 24 0c          	mov    %edx,0xc(%esp)
 804b706:	8b 55 d0             	mov    -0x30(%ebp),%edx
 804b709:	89 54 24 08          	mov    %edx,0x8(%esp)
 804b70d:	89 44 24 04          	mov    %eax,0x4(%esp)
 804b711:	8b 45 d0             	mov    -0x30(%ebp),%eax
 804b714:	89 04 24             	mov    %eax,(%esp)
 804b717:	e8 57 00 00 00       	call   804b773 <pixel_draw_aa>
 804b71c:	dd 85 60 ff ff ff    	fldl   -0xa0(%ebp)
 804b722:	dc 85 68 ff ff ff    	faddl  -0x98(%ebp)
 804b728:	dd 9d 60 ff ff ff    	fstpl  -0xa0(%ebp)
 804b72e:	83 45 d0 01          	addl   $0x1,-0x30(%ebp)
 804b732:	8b 45 d0             	mov    -0x30(%ebp),%eax
 804b735:	3b 45 d8             	cmp    -0x28(%ebp),%eax
 804b738:	0f 8c 80 fe ff ff    	jl     804b5be <line_draw_aa+0xeaa>
 804b73e:	eb 31                	jmp    804b771 <line_draw_aa+0x105d>
 804b740:	90                   	nop
 804b741:	eb 2e                	jmp    804b771 <line_draw_aa+0x105d>
 804b743:	90                   	nop
 804b744:	eb 2b                	jmp    804b771 <line_draw_aa+0x105d>
 804b746:	90                   	nop
 804b747:	eb 28                	jmp    804b771 <line_draw_aa+0x105d>
 804b749:	90                   	nop
 804b74a:	eb 25                	jmp    804b771 <line_draw_aa+0x105d>
 804b74c:	90                   	nop
 804b74d:	eb 22                	jmp    804b771 <line_draw_aa+0x105d>
 804b74f:	90                   	nop
 804b750:	eb 1f                	jmp    804b771 <line_draw_aa+0x105d>
 804b752:	90                   	nop
 804b753:	eb 1c                	jmp    804b771 <line_draw_aa+0x105d>
 804b755:	90                   	nop
 804b756:	eb 19                	jmp    804b771 <line_draw_aa+0x105d>
 804b758:	90                   	nop
 804b759:	eb 16                	jmp    804b771 <line_draw_aa+0x105d>
 804b75b:	90                   	nop
 804b75c:	eb 13                	jmp    804b771 <line_draw_aa+0x105d>
 804b75e:	90                   	nop
 804b75f:	eb 10                	jmp    804b771 <line_draw_aa+0x105d>
 804b761:	90                   	nop
 804b762:	eb 0d                	jmp    804b771 <line_draw_aa+0x105d>
 804b764:	90                   	nop
 804b765:	eb 0a                	jmp    804b771 <line_draw_aa+0x105d>
 804b767:	90                   	nop
 804b768:	eb 07                	jmp    804b771 <line_draw_aa+0x105d>
 804b76a:	90                   	nop
 804b76b:	eb 04                	jmp    804b771 <line_draw_aa+0x105d>
 804b76d:	90                   	nop
 804b76e:	eb 01                	jmp    804b771 <line_draw_aa+0x105d>
 804b770:	90                   	nop
 804b771:	c9                   	leave  
 804b772:	c3                   	ret    

0804b773 <pixel_draw_aa>:
 804b773:	55                   	push   %ebp
 804b774:	89 e5                	mov    %esp,%ebp
 804b776:	53                   	push   %ebx
 804b777:	83 ec 34             	sub    $0x34,%esp
 804b77a:	8b 45 18             	mov    0x18(%ebp),%eax
 804b77d:	89 45 f0             	mov    %eax,-0x10(%ebp)
 804b780:	8b 45 1c             	mov    0x1c(%ebp),%eax
 804b783:	89 45 f4             	mov    %eax,-0xc(%ebp)
 804b786:	8b 45 20             	mov    0x20(%ebp),%eax
 804b789:	89 45 e8             	mov    %eax,-0x18(%ebp)
 804b78c:	8b 45 24             	mov    0x24(%ebp),%eax
 804b78f:	89 45 ec             	mov    %eax,-0x14(%ebp)
 804b792:	a1 74 06 05 08       	mov    0x8050674,%eax
 804b797:	89 c2                	mov    %eax,%edx
 804b799:	a1 30 06 05 08       	mov    0x8050630,%eax
 804b79e:	0f af 45 0c          	imul   0xc(%ebp),%eax
 804b7a2:	03 45 08             	add    0x8(%ebp),%eax
 804b7a5:	c1 e0 02             	shl    $0x2,%eax
 804b7a8:	8d 1c 02             	lea    (%edx,%eax,1),%ebx
 804b7ab:	d9 e8                	fld1   
 804b7ad:	dc 65 f0             	fsubl  -0x10(%ebp)
 804b7b0:	a1 74 06 05 08       	mov    0x8050674,%eax
 804b7b5:	89 c2                	mov    %eax,%edx
 804b7b7:	a1 30 06 05 08       	mov    0x8050630,%eax
 804b7bc:	0f af 45 0c          	imul   0xc(%ebp),%eax
 804b7c0:	03 45 08             	add    0x8(%ebp),%eax
 804b7c3:	c1 e0 02             	shl    $0x2,%eax
 804b7c6:	8d 04 02             	lea    (%edx,%eax,1),%eax
 804b7c9:	8b 10                	mov    (%eax),%edx
 804b7cb:	b8 00 00 00 00       	mov    $0x0,%eax
 804b7d0:	89 d0                	mov    %edx,%eax
 804b7d2:	dd 45 f0             	fldl   -0x10(%ebp)
 804b7d5:	dd 5c 24 10          	fstpl  0x10(%esp)
 804b7d9:	8b 55 28             	mov    0x28(%ebp),%edx
 804b7dc:	89 54 24 0c          	mov    %edx,0xc(%esp)
 804b7e0:	dd 5c 24 04          	fstpl  0x4(%esp)
 804b7e4:	89 04 24             	mov    %eax,(%esp)
 804b7e7:	e8 64 00 00 00       	call   804b850 <color_blend>
 804b7ec:	89 03                	mov    %eax,(%ebx)
 804b7ee:	a1 74 06 05 08       	mov    0x8050674,%eax
 804b7f3:	89 c2                	mov    %eax,%edx
 804b7f5:	a1 30 06 05 08       	mov    0x8050630,%eax
 804b7fa:	0f af 45 14          	imul   0x14(%ebp),%eax
 804b7fe:	03 45 10             	add    0x10(%ebp),%eax
 804b801:	c1 e0 02             	shl    $0x2,%eax
 804b804:	8d 1c 02             	lea    (%edx,%eax,1),%ebx
 804b807:	d9 e8                	fld1   
 804b809:	dc 65 e8             	fsubl  -0x18(%ebp)
 804b80c:	a1 74 06 05 08       	mov    0x8050674,%eax
 804b811:	89 c2                	mov    %eax,%edx
 804b813:	a1 30 06 05 08       	mov    0x8050630,%eax
 804b818:	0f af 45 14          	imul   0x14(%ebp),%eax
 804b81c:	03 45 10             	add    0x10(%ebp),%eax
 804b81f:	c1 e0 02             	shl    $0x2,%eax
 804b822:	8d 04 02             	lea    (%edx,%eax,1),%eax
 804b825:	8b 10                	mov    (%eax),%edx
 804b827:	b8 00 00 00 00       	mov    $0x0,%eax
 804b82c:	89 d0                	mov    %edx,%eax
 804b82e:	dd 45 e8             	fldl   -0x18(%ebp)
 804b831:	dd 5c 24 10          	fstpl  0x10(%esp)
 804b835:	8b 55 28             	mov    0x28(%ebp),%edx
 804b838:	89 54 24 0c          	mov    %edx,0xc(%esp)
 804b83c:	dd 5c 24 04          	fstpl  0x4(%esp)
 804b840:	89 04 24             	mov    %eax,(%esp)
 804b843:	e8 08 00 00 00       	call   804b850 <color_blend>
 804b848:	89 03                	mov    %eax,(%ebx)
 804b84a:	83 c4 34             	add    $0x34,%esp
 804b84d:	5b                   	pop    %ebx
 804b84e:	5d                   	pop    %ebp
 804b84f:	c3                   	ret    

0804b850 <color_blend>:
 804b850:	55                   	push   %ebp
 804b851:	89 e5                	mov    %esp,%ebp
 804b853:	83 ec 30             	sub    $0x30,%esp
 804b856:	8b 45 0c             	mov    0xc(%ebp),%eax
 804b859:	89 45 e8             	mov    %eax,-0x18(%ebp)
 804b85c:	8b 45 10             	mov    0x10(%ebp),%eax
 804b85f:	89 45 ec             	mov    %eax,-0x14(%ebp)
 804b862:	8b 45 18             	mov    0x18(%ebp),%eax
 804b865:	89 45 e0             	mov    %eax,-0x20(%ebp)
 804b868:	8b 45 1c             	mov    0x1c(%ebp),%eax
 804b86b:	89 45 e4             	mov    %eax,-0x1c(%ebp)
 804b86e:	0f b6 45 0a          	movzbl 0xa(%ebp),%eax
 804b872:	0f b6 c0             	movzbl %al,%eax
 804b875:	89 45 dc             	mov    %eax,-0x24(%ebp)
 804b878:	db 45 dc             	fildl  -0x24(%ebp)
 804b87b:	dc 4d e8             	fmull  -0x18(%ebp)
 804b87e:	0f b6 45 16          	movzbl 0x16(%ebp),%eax
 804b882:	0f b6 c0             	movzbl %al,%eax
 804b885:	89 45 dc             	mov    %eax,-0x24(%ebp)
 804b888:	db 45 dc             	fildl  -0x24(%ebp)
 804b88b:	dc 4d e0             	fmull  -0x20(%ebp)
 804b88e:	de c1                	faddp  %st,%st(1)
 804b890:	d9 7d da             	fnstcw -0x26(%ebp)
 804b893:	0f b7 45 da          	movzwl -0x26(%ebp),%eax
 804b897:	b4 0c                	mov    $0xc,%ah
 804b899:	66 89 45 d8          	mov    %ax,-0x28(%ebp)
 804b89d:	d9 6d d8             	fldcw  -0x28(%ebp)
 804b8a0:	df 7d d0             	fistpll -0x30(%ebp)
 804b8a3:	d9 6d da             	fldcw  -0x26(%ebp)
 804b8a6:	8b 45 d0             	mov    -0x30(%ebp),%eax
 804b8a9:	8b 55 d4             	mov    -0x2c(%ebp),%edx
 804b8ac:	89 45 fc             	mov    %eax,-0x4(%ebp)
 804b8af:	81 7d fc ff 00 00 00 	cmpl   $0xff,-0x4(%ebp)
 804b8b6:	76 06                	jbe    804b8be <color_blend+0x6e>
 804b8b8:	c6 45 fa ff          	movb   $0xff,-0x6(%ebp)
 804b8bc:	eb 06                	jmp    804b8c4 <color_blend+0x74>
 804b8be:	8b 45 fc             	mov    -0x4(%ebp),%eax
 804b8c1:	88 45 fa             	mov    %al,-0x6(%ebp)
 804b8c4:	0f b6 45 09          	movzbl 0x9(%ebp),%eax
 804b8c8:	0f b6 c0             	movzbl %al,%eax
 804b8cb:	89 45 dc             	mov    %eax,-0x24(%ebp)
 804b8ce:	db 45 dc             	fildl  -0x24(%ebp)
 804b8d1:	dc 4d e8             	fmull  -0x18(%ebp)
 804b8d4:	0f b6 45 15          	movzbl 0x15(%ebp),%eax
 804b8d8:	0f b6 c0             	movzbl %al,%eax
 804b8db:	89 45 dc             	mov    %eax,-0x24(%ebp)
 804b8de:	db 45 dc             	fildl  -0x24(%ebp)
 804b8e1:	dc 4d e0             	fmull  -0x20(%ebp)
 804b8e4:	de c1                	faddp  %st,%st(1)
 804b8e6:	d9 6d d8             	fldcw  -0x28(%ebp)
 804b8e9:	df 7d d0             	fistpll -0x30(%ebp)
 804b8ec:	d9 6d da             	fldcw  -0x26(%ebp)
 804b8ef:	8b 45 d0             	mov    -0x30(%ebp),%eax
 804b8f2:	8b 55 d4             	mov    -0x2c(%ebp),%edx
 804b8f5:	89 45 fc             	mov    %eax,-0x4(%ebp)
 804b8f8:	81 7d fc ff 00 00 00 	cmpl   $0xff,-0x4(%ebp)
 804b8ff:	76 06                	jbe    804b907 <color_blend+0xb7>
 804b901:	c6 45 f9 ff          	movb   $0xff,-0x7(%ebp)
 804b905:	eb 06                	jmp    804b90d <color_blend+0xbd>
 804b907:	8b 45 fc             	mov    -0x4(%ebp),%eax
 804b90a:	88 45 f9             	mov    %al,-0x7(%ebp)
 804b90d:	0f b6 45 08          	movzbl 0x8(%ebp),%eax
 804b911:	0f b6 c0             	movzbl %al,%eax
 804b914:	89 45 dc             	mov    %eax,-0x24(%ebp)
 804b917:	db 45 dc             	fildl  -0x24(%ebp)
 804b91a:	dc 4d e8             	fmull  -0x18(%ebp)
 804b91d:	0f b6 45 14          	movzbl 0x14(%ebp),%eax
 804b921:	0f b6 c0             	movzbl %al,%eax
 804b924:	89 45 dc             	mov    %eax,-0x24(%ebp)
 804b927:	db 45 dc             	fildl  -0x24(%ebp)
 804b92a:	dc 4d e0             	fmull  -0x20(%ebp)
 804b92d:	de c1                	faddp  %st,%st(1)
 804b92f:	d9 6d d8             	fldcw  -0x28(%ebp)
 804b932:	df 7d d0             	fistpll -0x30(%ebp)
 804b935:	d9 6d da             	fldcw  -0x26(%ebp)
 804b938:	8b 45 d0             	mov    -0x30(%ebp),%eax
 804b93b:	8b 55 d4             	mov    -0x2c(%ebp),%edx
 804b93e:	89 45 fc             	mov    %eax,-0x4(%ebp)
 804b941:	81 7d fc ff 00 00 00 	cmpl   $0xff,-0x4(%ebp)
 804b948:	76 06                	jbe    804b950 <color_blend+0x100>
 804b94a:	c6 45 f8 ff          	movb   $0xff,-0x8(%ebp)
 804b94e:	eb 06                	jmp    804b956 <color_blend+0x106>
 804b950:	8b 45 fc             	mov    -0x4(%ebp),%eax
 804b953:	88 45 f8             	mov    %al,-0x8(%ebp)
 804b956:	8b 45 f8             	mov    -0x8(%ebp),%eax
 804b959:	c9                   	leave  
 804b95a:	c3                   	ret    
 804b95b:	90                   	nop

0804b95c <signals_set_handlers>:
 804b95c:	55                   	push   %ebp
 804b95d:	89 e5                	mov    %esp,%ebp
 804b95f:	83 ec 18             	sub    $0x18,%esp
 804b962:	c7 44 24 04 18 ba 04 	movl   $0x804ba18,0x4(%esp)
 804b969:	08 
 804b96a:	c7 04 24 08 00 00 00 	movl   $0x8,(%esp)
 804b971:	e8 be d0 ff ff       	call   8048a34 <signal@plt>
 804b976:	c7 44 24 04 18 ba 04 	movl   $0x804ba18,0x4(%esp)
 804b97d:	08 
 804b97e:	c7 04 24 04 00 00 00 	movl   $0x4,(%esp)
 804b985:	e8 aa d0 ff ff       	call   8048a34 <signal@plt>
 804b98a:	c7 44 24 04 18 ba 04 	movl   $0x804ba18,0x4(%esp)
 804b991:	08 
 804b992:	c7 04 24 0b 00 00 00 	movl   $0xb,(%esp)
 804b999:	e8 96 d0 ff ff       	call   8048a34 <signal@plt>
 804b99e:	c7 44 24 04 18 ba 04 	movl   $0x804ba18,0x4(%esp)
 804b9a5:	08 
 804b9a6:	c7 04 24 07 00 00 00 	movl   $0x7,(%esp)
 804b9ad:	e8 82 d0 ff ff       	call   8048a34 <signal@plt>
 804b9b2:	c7 44 24 04 18 ba 04 	movl   $0x804ba18,0x4(%esp)
 804b9b9:	08 
 804b9ba:	c7 04 24 06 00 00 00 	movl   $0x6,(%esp)
 804b9c1:	e8 6e d0 ff ff       	call   8048a34 <signal@plt>
 804b9c6:	c7 44 24 04 18 ba 04 	movl   $0x804ba18,0x4(%esp)
 804b9cd:	08 
 804b9ce:	c7 04 24 01 00 00 00 	movl   $0x1,(%esp)
 804b9d5:	e8 5a d0 ff ff       	call   8048a34 <signal@plt>
 804b9da:	c7 44 24 04 18 ba 04 	movl   $0x804ba18,0x4(%esp)
 804b9e1:	08 
 804b9e2:	c7 04 24 02 00 00 00 	movl   $0x2,(%esp)
 804b9e9:	e8 46 d0 ff ff       	call   8048a34 <signal@plt>
 804b9ee:	c7 44 24 04 18 ba 04 	movl   $0x804ba18,0x4(%esp)
 804b9f5:	08 
 804b9f6:	c7 04 24 0f 00 00 00 	movl   $0xf,(%esp)
 804b9fd:	e8 32 d0 ff ff       	call   8048a34 <signal@plt>
 804ba02:	c7 44 24 04 18 ba 04 	movl   $0x804ba18,0x4(%esp)
 804ba09:	08 
 804ba0a:	c7 04 24 11 00 00 00 	movl   $0x11,(%esp)
 804ba11:	e8 1e d0 ff ff       	call   8048a34 <signal@plt>
 804ba16:	c9                   	leave  
 804ba17:	c3                   	ret    

0804ba18 <signals_handle>:
 804ba18:	55                   	push   %ebp
 804ba19:	89 e5                	mov    %esp,%ebp
 804ba1b:	83 ec 38             	sub    $0x38,%esp
 804ba1e:	65 a1 14 00 00 00    	mov    %gs:0x14,%eax
 804ba24:	89 45 f4             	mov    %eax,-0xc(%ebp)
 804ba27:	31 c0                	xor    %eax,%eax
 804ba29:	a1 c4 00 05 08       	mov    0x80500c4,%eax
 804ba2e:	89 04 24             	mov    %eax,(%esp)
 804ba31:	e8 ce d0 ff ff       	call   8048b04 <fflush@plt>
 804ba36:	a1 e0 00 05 08       	mov    0x80500e0,%eax
 804ba3b:	89 04 24             	mov    %eax,(%esp)
 804ba3e:	e8 c1 d0 ff ff       	call   8048b04 <fflush@plt>
 804ba43:	a1 c0 00 05 08       	mov    0x80500c0,%eax
 804ba48:	89 04 24             	mov    %eax,(%esp)
 804ba4b:	e8 b4 d0 ff ff       	call   8048b04 <fflush@plt>
 804ba50:	a1 38 06 05 08       	mov    0x8050638,%eax
 804ba55:	85 c0                	test   %eax,%eax
 804ba57:	75 12                	jne    804ba6b <signals_handle+0x53>
 804ba59:	a1 34 06 05 08       	mov    0x8050634,%eax
 804ba5e:	85 c0                	test   %eax,%eax
 804ba60:	74 59                	je     804babb <signals_handle+0xa3>
 804ba62:	a1 48 06 05 08       	mov    0x8050648,%eax
 804ba67:	85 c0                	test   %eax,%eax
 804ba69:	74 50                	je     804babb <signals_handle+0xa3>
 804ba6b:	a1 c0 00 05 08       	mov    0x80500c0,%eax
 804ba70:	89 c2                	mov    %eax,%edx
 804ba72:	b8 c0 ea 04 08       	mov    $0x804eac0,%eax
 804ba77:	89 54 24 0c          	mov    %edx,0xc(%esp)
 804ba7b:	c7 44 24 08 1d 00 00 	movl   $0x1d,0x8(%esp)
 804ba82:	00 
 804ba83:	c7 44 24 04 01 00 00 	movl   $0x1,0x4(%esp)
 804ba8a:	00 
 804ba8b:	89 04 24             	mov    %eax,(%esp)
 804ba8e:	e8 31 d1 ff ff       	call   8048bc4 <fwrite@plt>
 804ba93:	a1 c0 00 05 08       	mov    0x80500c0,%eax
 804ba98:	89 c2                	mov    %eax,%edx
 804ba9a:	b8 de ea 04 08       	mov    $0x804eade,%eax
 804ba9f:	89 54 24 0c          	mov    %edx,0xc(%esp)
 804baa3:	c7 44 24 08 04 00 00 	movl   $0x4,0x8(%esp)
 804baaa:	00 
 804baab:	c7 44 24 04 01 00 00 	movl   $0x1,0x4(%esp)
 804bab2:	00 
 804bab3:	89 04 24             	mov    %eax,(%esp)
 804bab6:	e8 09 d1 ff ff       	call   8048bc4 <fwrite@plt>
 804babb:	83 7d 08 11          	cmpl   $0x11,0x8(%ebp)
 804babf:	0f 87 5b 03 00 00    	ja     804be20 <signals_handle+0x408>
 804bac5:	8b 45 08             	mov    0x8(%ebp),%eax
 804bac8:	c1 e0 02             	shl    $0x2,%eax
 804bacb:	8b 80 5c eb 04 08    	mov    0x804eb5c(%eax),%eax
 804bad1:	ff e0                	jmp    *%eax
 804bad3:	a1 38 06 05 08       	mov    0x8050638,%eax
 804bad8:	85 c0                	test   %eax,%eax
 804bada:	75 1a                	jne    804baf6 <signals_handle+0xde>
 804badc:	a1 34 06 05 08       	mov    0x8050634,%eax
 804bae1:	85 c0                	test   %eax,%eax
 804bae3:	0f 84 7c 03 00 00    	je     804be65 <signals_handle+0x44d>
 804bae9:	a1 48 06 05 08       	mov    0x8050648,%eax
 804baee:	85 c0                	test   %eax,%eax
 804baf0:	0f 84 72 03 00 00    	je     804be68 <signals_handle+0x450>
 804baf6:	a1 c0 00 05 08       	mov    0x80500c0,%eax
 804bafb:	89 c2                	mov    %eax,%edx
 804bafd:	b8 e3 ea 04 08       	mov    $0x804eae3,%eax
 804bb02:	89 54 24 0c          	mov    %edx,0xc(%esp)
 804bb06:	c7 44 24 08 06 00 00 	movl   $0x6,0x8(%esp)
 804bb0d:	00 
 804bb0e:	c7 44 24 04 01 00 00 	movl   $0x1,0x4(%esp)
 804bb15:	00 
 804bb16:	89 04 24             	mov    %eax,(%esp)
 804bb19:	e8 a6 d0 ff ff       	call   8048bc4 <fwrite@plt>
 804bb1e:	e9 70 03 00 00       	jmp    804be93 <signals_handle+0x47b>
 804bb23:	a1 38 06 05 08       	mov    0x8050638,%eax
 804bb28:	85 c0                	test   %eax,%eax
 804bb2a:	75 1a                	jne    804bb46 <signals_handle+0x12e>
 804bb2c:	a1 34 06 05 08       	mov    0x8050634,%eax
 804bb31:	85 c0                	test   %eax,%eax
 804bb33:	0f 84 32 03 00 00    	je     804be6b <signals_handle+0x453>
 804bb39:	a1 48 06 05 08       	mov    0x8050648,%eax
 804bb3e:	85 c0                	test   %eax,%eax
 804bb40:	0f 84 28 03 00 00    	je     804be6e <signals_handle+0x456>
 804bb46:	a1 c0 00 05 08       	mov    0x80500c0,%eax
 804bb4b:	89 c2                	mov    %eax,%edx
 804bb4d:	b8 ea ea 04 08       	mov    $0x804eaea,%eax
 804bb52:	89 54 24 0c          	mov    %edx,0xc(%esp)
 804bb56:	c7 44 24 08 06 00 00 	movl   $0x6,0x8(%esp)
 804bb5d:	00 
 804bb5e:	c7 44 24 04 01 00 00 	movl   $0x1,0x4(%esp)
 804bb65:	00 
 804bb66:	89 04 24             	mov    %eax,(%esp)
 804bb69:	e8 56 d0 ff ff       	call   8048bc4 <fwrite@plt>
 804bb6e:	e9 20 03 00 00       	jmp    804be93 <signals_handle+0x47b>
 804bb73:	a1 38 06 05 08       	mov    0x8050638,%eax
 804bb78:	85 c0                	test   %eax,%eax
 804bb7a:	75 12                	jne    804bb8e <signals_handle+0x176>
 804bb7c:	a1 34 06 05 08       	mov    0x8050634,%eax
 804bb81:	85 c0                	test   %eax,%eax
 804bb83:	74 31                	je     804bbb6 <signals_handle+0x19e>
 804bb85:	a1 48 06 05 08       	mov    0x8050648,%eax
 804bb8a:	85 c0                	test   %eax,%eax
 804bb8c:	74 28                	je     804bbb6 <signals_handle+0x19e>
 804bb8e:	a1 c0 00 05 08       	mov    0x80500c0,%eax
 804bb93:	89 c2                	mov    %eax,%edx
 804bb95:	b8 f1 ea 04 08       	mov    $0x804eaf1,%eax
 804bb9a:	89 54 24 0c          	mov    %edx,0xc(%esp)
 804bb9e:	c7 44 24 08 07 00 00 	movl   $0x7,0x8(%esp)
 804bba5:	00 
 804bba6:	c7 44 24 04 01 00 00 	movl   $0x1,0x4(%esp)
 804bbad:	00 
 804bbae:	89 04 24             	mov    %eax,(%esp)
 804bbb1:	e8 0e d0 ff ff       	call   8048bc4 <fwrite@plt>
 804bbb6:	ba f9 ea 04 08       	mov    $0x804eaf9,%edx
 804bbbb:	b8 fb ea 04 08       	mov    $0x804eafb,%eax
 804bbc0:	89 54 24 04          	mov    %edx,0x4(%esp)
 804bbc4:	89 04 24             	mov    %eax,(%esp)
 804bbc7:	e8 88 cf ff ff       	call   8048b54 <fopen@plt>
 804bbcc:	89 45 e0             	mov    %eax,-0x20(%ebp)
 804bbcf:	8b 45 e0             	mov    -0x20(%ebp),%eax
 804bbd2:	89 44 24 08          	mov    %eax,0x8(%esp)
 804bbd6:	c7 44 24 04 10 00 00 	movl   $0x10,0x4(%esp)
 804bbdd:	00 
 804bbde:	8d 45 e4             	lea    -0x1c(%ebp),%eax
 804bbe1:	89 04 24             	mov    %eax,(%esp)
 804bbe4:	e8 9b ce ff ff       	call   8048a84 <fgets@plt>
 804bbe9:	8b 45 e0             	mov    -0x20(%ebp),%eax
 804bbec:	89 04 24             	mov    %eax,(%esp)
 804bbef:	e8 40 cf ff ff       	call   8048b34 <fclose@plt>
 804bbf4:	ba 0d eb 04 08       	mov    $0x804eb0d,%edx
 804bbf9:	b8 fb ea 04 08       	mov    $0x804eafb,%eax
 804bbfe:	89 54 24 04          	mov    %edx,0x4(%esp)
 804bc02:	89 04 24             	mov    %eax,(%esp)
 804bc05:	e8 4a cf ff ff       	call   8048b54 <fopen@plt>
 804bc0a:	89 45 e0             	mov    %eax,-0x20(%ebp)
 804bc0d:	8d 45 e4             	lea    -0x1c(%ebp),%eax
 804bc10:	89 04 24             	mov    %eax,(%esp)
 804bc13:	e8 7c cf ff ff       	call   8048b94 <atoi@plt>
 804bc18:	8d 50 01             	lea    0x1(%eax),%edx
 804bc1b:	b8 0f eb 04 08       	mov    $0x804eb0f,%eax
 804bc20:	89 54 24 08          	mov    %edx,0x8(%esp)
 804bc24:	89 44 24 04          	mov    %eax,0x4(%esp)
 804bc28:	8b 45 e0             	mov    -0x20(%ebp),%eax
 804bc2b:	89 04 24             	mov    %eax,(%esp)
 804bc2e:	e8 a1 cf ff ff       	call   8048bd4 <fprintf@plt>
 804bc33:	8b 45 e0             	mov    -0x20(%ebp),%eax
 804bc36:	89 04 24             	mov    %eax,(%esp)
 804bc39:	e8 f6 ce ff ff       	call   8048b34 <fclose@plt>
 804bc3e:	e9 50 02 00 00       	jmp    804be93 <signals_handle+0x47b>
 804bc43:	a1 38 06 05 08       	mov    0x8050638,%eax
 804bc48:	85 c0                	test   %eax,%eax
 804bc4a:	75 1a                	jne    804bc66 <signals_handle+0x24e>
 804bc4c:	a1 34 06 05 08       	mov    0x8050634,%eax
 804bc51:	85 c0                	test   %eax,%eax
 804bc53:	0f 84 18 02 00 00    	je     804be71 <signals_handle+0x459>
 804bc59:	a1 48 06 05 08       	mov    0x8050648,%eax
 804bc5e:	85 c0                	test   %eax,%eax
 804bc60:	0f 84 0e 02 00 00    	je     804be74 <signals_handle+0x45c>
 804bc66:	a1 c0 00 05 08       	mov    0x80500c0,%eax
 804bc6b:	89 c2                	mov    %eax,%edx
 804bc6d:	b8 12 eb 04 08       	mov    $0x804eb12,%eax
 804bc72:	89 54 24 0c          	mov    %edx,0xc(%esp)
 804bc76:	c7 44 24 08 06 00 00 	movl   $0x6,0x8(%esp)
 804bc7d:	00 
 804bc7e:	c7 44 24 04 01 00 00 	movl   $0x1,0x4(%esp)
 804bc85:	00 
 804bc86:	89 04 24             	mov    %eax,(%esp)
 804bc89:	e8 36 cf ff ff       	call   8048bc4 <fwrite@plt>
 804bc8e:	e9 00 02 00 00       	jmp    804be93 <signals_handle+0x47b>
 804bc93:	a1 38 06 05 08       	mov    0x8050638,%eax
 804bc98:	85 c0                	test   %eax,%eax
 804bc9a:	75 1a                	jne    804bcb6 <signals_handle+0x29e>
 804bc9c:	a1 34 06 05 08       	mov    0x8050634,%eax
 804bca1:	85 c0                	test   %eax,%eax
 804bca3:	0f 84 ce 01 00 00    	je     804be77 <signals_handle+0x45f>
 804bca9:	a1 48 06 05 08       	mov    0x8050648,%eax
 804bcae:	85 c0                	test   %eax,%eax
 804bcb0:	0f 84 c4 01 00 00    	je     804be7a <signals_handle+0x462>
 804bcb6:	a1 c0 00 05 08       	mov    0x80500c0,%eax
 804bcbb:	89 c2                	mov    %eax,%edx
 804bcbd:	b8 19 eb 04 08       	mov    $0x804eb19,%eax
 804bcc2:	89 54 24 0c          	mov    %edx,0xc(%esp)
 804bcc6:	c7 44 24 08 07 00 00 	movl   $0x7,0x8(%esp)
 804bccd:	00 
 804bcce:	c7 44 24 04 01 00 00 	movl   $0x1,0x4(%esp)
 804bcd5:	00 
 804bcd6:	89 04 24             	mov    %eax,(%esp)
 804bcd9:	e8 e6 ce ff ff       	call   8048bc4 <fwrite@plt>
 804bcde:	e9 b0 01 00 00       	jmp    804be93 <signals_handle+0x47b>
 804bce3:	a1 38 06 05 08       	mov    0x8050638,%eax
 804bce8:	85 c0                	test   %eax,%eax
 804bcea:	75 1a                	jne    804bd06 <signals_handle+0x2ee>
 804bcec:	a1 34 06 05 08       	mov    0x8050634,%eax
 804bcf1:	85 c0                	test   %eax,%eax
 804bcf3:	0f 84 84 01 00 00    	je     804be7d <signals_handle+0x465>
 804bcf9:	a1 48 06 05 08       	mov    0x8050648,%eax
 804bcfe:	85 c0                	test   %eax,%eax
 804bd00:	0f 84 7a 01 00 00    	je     804be80 <signals_handle+0x468>
 804bd06:	a1 c0 00 05 08       	mov    0x80500c0,%eax
 804bd0b:	89 c2                	mov    %eax,%edx
 804bd0d:	b8 21 eb 04 08       	mov    $0x804eb21,%eax
 804bd12:	89 54 24 0c          	mov    %edx,0xc(%esp)
 804bd16:	c7 44 24 08 06 00 00 	movl   $0x6,0x8(%esp)
 804bd1d:	00 
 804bd1e:	c7 44 24 04 01 00 00 	movl   $0x1,0x4(%esp)
 804bd25:	00 
 804bd26:	89 04 24             	mov    %eax,(%esp)
 804bd29:	e8 96 ce ff ff       	call   8048bc4 <fwrite@plt>
 804bd2e:	e9 60 01 00 00       	jmp    804be93 <signals_handle+0x47b>
 804bd33:	a1 38 06 05 08       	mov    0x8050638,%eax
 804bd38:	85 c0                	test   %eax,%eax
 804bd3a:	75 1a                	jne    804bd56 <signals_handle+0x33e>
 804bd3c:	a1 34 06 05 08       	mov    0x8050634,%eax
 804bd41:	85 c0                	test   %eax,%eax
 804bd43:	0f 84 3a 01 00 00    	je     804be83 <signals_handle+0x46b>
 804bd49:	a1 48 06 05 08       	mov    0x8050648,%eax
 804bd4e:	85 c0                	test   %eax,%eax
 804bd50:	0f 84 30 01 00 00    	je     804be86 <signals_handle+0x46e>
 804bd56:	a1 c0 00 05 08       	mov    0x80500c0,%eax
 804bd5b:	89 c2                	mov    %eax,%edx
 804bd5d:	b8 28 eb 04 08       	mov    $0x804eb28,%eax
 804bd62:	89 54 24 0c          	mov    %edx,0xc(%esp)
 804bd66:	c7 44 24 08 06 00 00 	movl   $0x6,0x8(%esp)
 804bd6d:	00 
 804bd6e:	c7 44 24 04 01 00 00 	movl   $0x1,0x4(%esp)
 804bd75:	00 
 804bd76:	89 04 24             	mov    %eax,(%esp)
 804bd79:	e8 46 ce ff ff       	call   8048bc4 <fwrite@plt>
 804bd7e:	e9 10 01 00 00       	jmp    804be93 <signals_handle+0x47b>
 804bd83:	a1 38 06 05 08       	mov    0x8050638,%eax
 804bd88:	85 c0                	test   %eax,%eax
 804bd8a:	75 1a                	jne    804bda6 <signals_handle+0x38e>
 804bd8c:	a1 34 06 05 08       	mov    0x8050634,%eax
 804bd91:	85 c0                	test   %eax,%eax
 804bd93:	0f 84 f0 00 00 00    	je     804be89 <signals_handle+0x471>
 804bd99:	a1 48 06 05 08       	mov    0x8050648,%eax
 804bd9e:	85 c0                	test   %eax,%eax
 804bda0:	0f 84 e6 00 00 00    	je     804be8c <signals_handle+0x474>
 804bda6:	a1 c0 00 05 08       	mov    0x80500c0,%eax
 804bdab:	89 c2                	mov    %eax,%edx
 804bdad:	b8 2f eb 04 08       	mov    $0x804eb2f,%eax
 804bdb2:	89 54 24 0c          	mov    %edx,0xc(%esp)
 804bdb6:	c7 44 24 08 07 00 00 	movl   $0x7,0x8(%esp)
 804bdbd:	00 
 804bdbe:	c7 44 24 04 01 00 00 	movl   $0x1,0x4(%esp)
 804bdc5:	00 
 804bdc6:	89 04 24             	mov    %eax,(%esp)
 804bdc9:	e8 f6 cd ff ff       	call   8048bc4 <fwrite@plt>
 804bdce:	e9 c0 00 00 00       	jmp    804be93 <signals_handle+0x47b>
 804bdd3:	a1 38 06 05 08       	mov    0x8050638,%eax
 804bdd8:	85 c0                	test   %eax,%eax
 804bdda:	75 1a                	jne    804bdf6 <signals_handle+0x3de>
 804bddc:	a1 34 06 05 08       	mov    0x8050634,%eax
 804bde1:	85 c0                	test   %eax,%eax
 804bde3:	0f 84 a6 00 00 00    	je     804be8f <signals_handle+0x477>
 804bde9:	a1 48 06 05 08       	mov    0x8050648,%eax
 804bdee:	85 c0                	test   %eax,%eax
 804bdf0:	0f 84 9c 00 00 00    	je     804be92 <signals_handle+0x47a>
 804bdf6:	a1 c0 00 05 08       	mov    0x80500c0,%eax
 804bdfb:	89 c2                	mov    %eax,%edx
 804bdfd:	b8 37 eb 04 08       	mov    $0x804eb37,%eax
 804be02:	89 54 24 0c          	mov    %edx,0xc(%esp)
 804be06:	c7 44 24 08 07 00 00 	movl   $0x7,0x8(%esp)
 804be0d:	00 
 804be0e:	c7 44 24 04 01 00 00 	movl   $0x1,0x4(%esp)
 804be15:	00 
 804be16:	89 04 24             	mov    %eax,(%esp)
 804be19:	e8 a6 cd ff ff       	call   8048bc4 <fwrite@plt>
 804be1e:	eb 73                	jmp    804be93 <signals_handle+0x47b>
 804be20:	a1 38 06 05 08       	mov    0x8050638,%eax
 804be25:	85 c0                	test   %eax,%eax
 804be27:	75 12                	jne    804be3b <signals_handle+0x423>
 804be29:	a1 34 06 05 08       	mov    0x8050634,%eax
 804be2e:	85 c0                	test   %eax,%eax
 804be30:	74 61                	je     804be93 <signals_handle+0x47b>
 804be32:	a1 48 06 05 08       	mov    0x8050648,%eax
 804be37:	85 c0                	test   %eax,%eax
 804be39:	74 58                	je     804be93 <signals_handle+0x47b>
 804be3b:	a1 c0 00 05 08       	mov    0x80500c0,%eax
 804be40:	89 c2                	mov    %eax,%edx
 804be42:	b8 3f eb 04 08       	mov    $0x804eb3f,%eax
 804be47:	89 54 24 0c          	mov    %edx,0xc(%esp)
 804be4b:	c7 44 24 08 16 00 00 	movl   $0x16,0x8(%esp)
 804be52:	00 
 804be53:	c7 44 24 04 01 00 00 	movl   $0x1,0x4(%esp)
 804be5a:	00 
 804be5b:	89 04 24             	mov    %eax,(%esp)
 804be5e:	e8 61 cd ff ff       	call   8048bc4 <fwrite@plt>
 804be63:	eb 2e                	jmp    804be93 <signals_handle+0x47b>
 804be65:	90                   	nop
 804be66:	eb 2b                	jmp    804be93 <signals_handle+0x47b>
 804be68:	90                   	nop
 804be69:	eb 28                	jmp    804be93 <signals_handle+0x47b>
 804be6b:	90                   	nop
 804be6c:	eb 25                	jmp    804be93 <signals_handle+0x47b>
 804be6e:	90                   	nop
 804be6f:	eb 22                	jmp    804be93 <signals_handle+0x47b>
 804be71:	90                   	nop
 804be72:	eb 1f                	jmp    804be93 <signals_handle+0x47b>
 804be74:	90                   	nop
 804be75:	eb 1c                	jmp    804be93 <signals_handle+0x47b>
 804be77:	90                   	nop
 804be78:	eb 19                	jmp    804be93 <signals_handle+0x47b>
 804be7a:	90                   	nop
 804be7b:	eb 16                	jmp    804be93 <signals_handle+0x47b>
 804be7d:	90                   	nop
 804be7e:	eb 13                	jmp    804be93 <signals_handle+0x47b>
 804be80:	90                   	nop
 804be81:	eb 10                	jmp    804be93 <signals_handle+0x47b>
 804be83:	90                   	nop
 804be84:	eb 0d                	jmp    804be93 <signals_handle+0x47b>
 804be86:	90                   	nop
 804be87:	eb 0a                	jmp    804be93 <signals_handle+0x47b>
 804be89:	90                   	nop
 804be8a:	eb 07                	jmp    804be93 <signals_handle+0x47b>
 804be8c:	90                   	nop
 804be8d:	eb 04                	jmp    804be93 <signals_handle+0x47b>
 804be8f:	90                   	nop
 804be90:	eb 01                	jmp    804be93 <signals_handle+0x47b>
 804be92:	90                   	nop
 804be93:	a1 38 06 05 08       	mov    0x8050638,%eax
 804be98:	85 c0                	test   %eax,%eax
 804be9a:	75 12                	jne    804beae <signals_handle+0x496>
 804be9c:	a1 34 06 05 08       	mov    0x8050634,%eax
 804bea1:	85 c0                	test   %eax,%eax
 804bea3:	74 33                	je     804bed8 <signals_handle+0x4c0>
 804bea5:	a1 48 06 05 08       	mov    0x8050648,%eax
 804beaa:	85 c0                	test   %eax,%eax
 804beac:	74 2a                	je     804bed8 <signals_handle+0x4c0>
 804beae:	a1 c0 00 05 08       	mov    0x80500c0,%eax
 804beb3:	89 c2                	mov    %eax,%edx
 804beb5:	b8 56 eb 04 08       	mov    $0x804eb56,%eax
 804beba:	89 54 24 0c          	mov    %edx,0xc(%esp)
 804bebe:	c7 44 24 08 05 00 00 	movl   $0x5,0x8(%esp)
 804bec5:	00 
 804bec6:	c7 44 24 04 01 00 00 	movl   $0x1,0x4(%esp)
 804becd:	00 
 804bece:	89 04 24             	mov    %eax,(%esp)
 804bed1:	e8 ee cc ff ff       	call   8048bc4 <fwrite@plt>
 804bed6:	eb 15                	jmp    804beed <signals_handle+0x4d5>
 804bed8:	a1 c0 00 05 08       	mov    0x80500c0,%eax
 804bedd:	89 44 24 04          	mov    %eax,0x4(%esp)
 804bee1:	c7 04 24 0a 00 00 00 	movl   $0xa,(%esp)
 804bee8:	e8 17 cd ff ff       	call   8048c04 <fputc@plt>
 804beed:	c7 04 24 00 00 00 00 	movl   $0x0,(%esp)
 804bef4:	e8 8b cd ff ff       	call   8048c84 <exit@plt>
 804bef9:	90                   	nop
 804befa:	90                   	nop
 804befb:	90                   	nop

0804befc <world_init>:
 804befc:	55                   	push   %ebp
 804befd:	89 e5                	mov    %esp,%ebp
 804beff:	83 ec 38             	sub    $0x38,%esp
 804bf02:	e8 ef 0c 00 00       	call   804cbf6 <obj_kinematics_new>
 804bf07:	89 45 f4             	mov    %eax,-0xc(%ebp)
 804bf0a:	e8 e7 0c 00 00       	call   804cbf6 <obj_kinematics_new>
 804bf0f:	89 45 f0             	mov    %eax,-0x10(%ebp)
 804bf12:	e8 df 0c 00 00       	call   804cbf6 <obj_kinematics_new>
 804bf17:	89 45 ec             	mov    %eax,-0x14(%ebp)
 804bf1a:	8b 45 f4             	mov    -0xc(%ebp),%eax
 804bf1d:	d9 ee                	fldz   
 804bf1f:	dd 58 18             	fstpl  0x18(%eax)
 804bf22:	8b 45 f4             	mov    -0xc(%ebp),%eax
 804bf25:	d9 ee                	fldz   
 804bf27:	dd 58 20             	fstpl  0x20(%eax)
 804bf2a:	8b 45 f4             	mov    -0xc(%ebp),%eax
 804bf2d:	d9 ee                	fldz   
 804bf2f:	dd 58 28             	fstpl  0x28(%eax)
 804bf32:	8b 45 f4             	mov    -0xc(%ebp),%eax
 804bf35:	d9 ee                	fldz   
 804bf37:	dd 58 30             	fstpl  0x30(%eax)
 804bf3a:	8b 45 f4             	mov    -0xc(%ebp),%eax
 804bf3d:	d9 ee                	fldz   
 804bf3f:	dd 58 38             	fstpl  0x38(%eax)
 804bf42:	8b 45 f4             	mov    -0xc(%ebp),%eax
 804bf45:	d9 ee                	fldz   
 804bf47:	dd 58 40             	fstpl  0x40(%eax)
 804bf4a:	8b 45 f4             	mov    -0xc(%ebp),%eax
 804bf4d:	d9 ee                	fldz   
 804bf4f:	dd 58 48             	fstpl  0x48(%eax)
 804bf52:	8b 45 f4             	mov    -0xc(%ebp),%eax
 804bf55:	d9 ee                	fldz   
 804bf57:	dd 58 50             	fstpl  0x50(%eax)
 804bf5a:	8b 45 f4             	mov    -0xc(%ebp),%eax
 804bf5d:	d9 ee                	fldz   
 804bf5f:	dd 58 58             	fstpl  0x58(%eax)
 804bf62:	8b 45 f4             	mov    -0xc(%ebp),%eax
 804bf65:	d9 ee                	fldz   
 804bf67:	dd 58 60             	fstpl  0x60(%eax)
 804bf6a:	8b 45 f4             	mov    -0xc(%ebp),%eax
 804bf6d:	d9 ee                	fldz   
 804bf6f:	dd 58 68             	fstpl  0x68(%eax)
 804bf72:	8b 45 f4             	mov    -0xc(%ebp),%eax
 804bf75:	d9 ee                	fldz   
 804bf77:	dd 58 70             	fstpl  0x70(%eax)
 804bf7a:	8b 45 f0             	mov    -0x10(%ebp),%eax
 804bf7d:	d9 ee                	fldz   
 804bf7f:	dd 58 18             	fstpl  0x18(%eax)
 804bf82:	8b 45 f0             	mov    -0x10(%ebp),%eax
 804bf85:	d9 ee                	fldz   
 804bf87:	dd 58 20             	fstpl  0x20(%eax)
 804bf8a:	8b 45 f0             	mov    -0x10(%ebp),%eax
 804bf8d:	d9 ee                	fldz   
 804bf8f:	dd 58 28             	fstpl  0x28(%eax)
 804bf92:	8b 45 f0             	mov    -0x10(%ebp),%eax
 804bf95:	d9 ee                	fldz   
 804bf97:	dd 58 30             	fstpl  0x30(%eax)
 804bf9a:	8b 45 f0             	mov    -0x10(%ebp),%eax
 804bf9d:	d9 ee                	fldz   
 804bf9f:	dd 58 38             	fstpl  0x38(%eax)
 804bfa2:	8b 45 f0             	mov    -0x10(%ebp),%eax
 804bfa5:	d9 ee                	fldz   
 804bfa7:	dd 58 40             	fstpl  0x40(%eax)
 804bfaa:	8b 45 f0             	mov    -0x10(%ebp),%eax
 804bfad:	d9 ee                	fldz   
 804bfaf:	dd 58 48             	fstpl  0x48(%eax)
 804bfb2:	8b 45 f0             	mov    -0x10(%ebp),%eax
 804bfb5:	d9 ee                	fldz   
 804bfb7:	dd 58 50             	fstpl  0x50(%eax)
 804bfba:	8b 45 f0             	mov    -0x10(%ebp),%eax
 804bfbd:	d9 ee                	fldz   
 804bfbf:	dd 58 58             	fstpl  0x58(%eax)
 804bfc2:	8b 45 f0             	mov    -0x10(%ebp),%eax
 804bfc5:	d9 ee                	fldz   
 804bfc7:	dd 58 60             	fstpl  0x60(%eax)
 804bfca:	8b 45 f0             	mov    -0x10(%ebp),%eax
 804bfcd:	d9 ee                	fldz   
 804bfcf:	dd 58 68             	fstpl  0x68(%eax)
 804bfd2:	8b 45 f0             	mov    -0x10(%ebp),%eax
 804bfd5:	d9 ee                	fldz   
 804bfd7:	dd 58 70             	fstpl  0x70(%eax)
 804bfda:	8b 45 ec             	mov    -0x14(%ebp),%eax
 804bfdd:	d9 ee                	fldz   
 804bfdf:	dd 58 18             	fstpl  0x18(%eax)
 804bfe2:	8b 45 ec             	mov    -0x14(%ebp),%eax
 804bfe5:	d9 ee                	fldz   
 804bfe7:	dd 58 20             	fstpl  0x20(%eax)
 804bfea:	8b 45 ec             	mov    -0x14(%ebp),%eax
 804bfed:	d9 ee                	fldz   
 804bfef:	dd 58 28             	fstpl  0x28(%eax)
 804bff2:	8b 45 ec             	mov    -0x14(%ebp),%eax
 804bff5:	d9 ee                	fldz   
 804bff7:	dd 58 30             	fstpl  0x30(%eax)
 804bffa:	8b 45 ec             	mov    -0x14(%ebp),%eax
 804bffd:	d9 ee                	fldz   
 804bfff:	dd 58 38             	fstpl  0x38(%eax)
 804c002:	8b 45 ec             	mov    -0x14(%ebp),%eax
 804c005:	dd 05 d8 eb 04 08    	fldl   0x804ebd8
 804c00b:	dd 58 40             	fstpl  0x40(%eax)
 804c00e:	8b 45 ec             	mov    -0x14(%ebp),%eax
 804c011:	d9 ee                	fldz   
 804c013:	dd 58 48             	fstpl  0x48(%eax)
 804c016:	8b 45 ec             	mov    -0x14(%ebp),%eax
 804c019:	d9 ee                	fldz   
 804c01b:	dd 58 50             	fstpl  0x50(%eax)
 804c01e:	8b 45 ec             	mov    -0x14(%ebp),%eax
 804c021:	d9 ee                	fldz   
 804c023:	dd 58 58             	fstpl  0x58(%eax)
 804c026:	8b 45 ec             	mov    -0x14(%ebp),%eax
 804c029:	d9 ee                	fldz   
 804c02b:	dd 58 60             	fstpl  0x60(%eax)
 804c02e:	8b 45 ec             	mov    -0x14(%ebp),%eax
 804c031:	d9 ee                	fldz   
 804c033:	dd 58 68             	fstpl  0x68(%eax)
 804c036:	8b 45 ec             	mov    -0x14(%ebp),%eax
 804c039:	d9 ee                	fldz   
 804c03b:	dd 58 70             	fstpl  0x70(%eax)
 804c03e:	c7 44 24 08 01 00 00 	movl   $0x1,0x8(%esp)
 804c045:	00 
 804c046:	8b 45 08             	mov    0x8(%ebp),%eax
 804c049:	89 44 24 04          	mov    %eax,0x4(%esp)
 804c04d:	8b 45 f4             	mov    -0xc(%ebp),%eax
 804c050:	89 04 24             	mov    %eax,(%esp)
 804c053:	e8 9c 08 00 00       	call   804c8f4 <scene_add_tform>
 804c058:	89 45 e8             	mov    %eax,-0x18(%ebp)
 804c05b:	c7 44 24 08 01 00 00 	movl   $0x1,0x8(%esp)
 804c062:	00 
 804c063:	8b 45 e8             	mov    -0x18(%ebp),%eax
 804c066:	89 44 24 04          	mov    %eax,0x4(%esp)
 804c06a:	8b 45 f0             	mov    -0x10(%ebp),%eax
 804c06d:	89 04 24             	mov    %eax,(%esp)
 804c070:	e8 7f 08 00 00       	call   804c8f4 <scene_add_tform>
 804c075:	89 45 e4             	mov    %eax,-0x1c(%ebp)
 804c078:	c7 44 24 08 01 00 00 	movl   $0x1,0x8(%esp)
 804c07f:	00 
 804c080:	8b 45 e8             	mov    -0x18(%ebp),%eax
 804c083:	89 44 24 04          	mov    %eax,0x4(%esp)
 804c087:	8b 45 ec             	mov    -0x14(%ebp),%eax
 804c08a:	89 04 24             	mov    %eax,(%esp)
 804c08d:	e8 62 08 00 00       	call   804c8f4 <scene_add_tform>
 804c092:	89 45 e0             	mov    %eax,-0x20(%ebp)
 804c095:	c7 04 24 a8 eb 04 08 	movl   $0x804eba8,(%esp)
 804c09c:	e8 b7 19 00 00       	call   804da58 <parse_object>
 804c0a1:	89 45 dc             	mov    %eax,-0x24(%ebp)
 804c0a4:	c7 04 24 be eb 04 08 	movl   $0x804ebbe,(%esp)
 804c0ab:	e8 a8 19 00 00       	call   804da58 <parse_object>
 804c0b0:	89 45 d8             	mov    %eax,-0x28(%ebp)
 804c0b3:	c7 44 24 08 00 00 00 	movl   $0x0,0x8(%esp)
 804c0ba:	00 
 804c0bb:	8b 45 e4             	mov    -0x1c(%ebp),%eax
 804c0be:	89 44 24 04          	mov    %eax,0x4(%esp)
 804c0c2:	8b 45 dc             	mov    -0x24(%ebp),%eax
 804c0c5:	89 04 24             	mov    %eax,(%esp)
 804c0c8:	e8 66 08 00 00       	call   804c933 <scene_add_obj>
 804c0cd:	c7 44 24 08 00 00 00 	movl   $0x0,0x8(%esp)
 804c0d4:	00 
 804c0d5:	8b 45 e0             	mov    -0x20(%ebp),%eax
 804c0d8:	89 44 24 04          	mov    %eax,0x4(%esp)
 804c0dc:	8b 45 d8             	mov    -0x28(%ebp),%eax
 804c0df:	89 04 24             	mov    %eax,(%esp)
 804c0e2:	e8 4c 08 00 00       	call   804c933 <scene_add_obj>
 804c0e7:	c9                   	leave  
 804c0e8:	c3                   	ret    

0804c0e9 <world_make_cube>:
 804c0e9:	55                   	push   %ebp
 804c0ea:	89 e5                	mov    %esp,%ebp
 804c0ec:	83 ec 58             	sub    $0x58,%esp
 804c0ef:	8b 45 08             	mov    0x8(%ebp),%eax
 804c0f2:	89 45 d0             	mov    %eax,-0x30(%ebp)
 804c0f5:	8b 45 0c             	mov    0xc(%ebp),%eax
 804c0f8:	89 45 d4             	mov    %eax,-0x2c(%ebp)
 804c0fb:	c7 44 24 0c 06 00 00 	movl   $0x6,0xc(%esp)
 804c102:	00 
 804c103:	c7 44 24 08 0c 00 00 	movl   $0xc,0x8(%esp)
 804c10a:	00 
 804c10b:	c7 44 24 04 08 00 00 	movl   $0x8,0x4(%esp)
 804c112:	00 
 804c113:	c7 04 24 02 00 00 00 	movl   $0x2,(%esp)
 804c11a:	e8 71 09 00 00       	call   804ca90 <object_new>
 804c11f:	89 45 f4             	mov    %eax,-0xc(%ebp)
 804c122:	8b 45 f4             	mov    -0xc(%ebp),%eax
 804c125:	8b 40 04             	mov    0x4(%eax),%eax
 804c128:	8b 00                	mov    (%eax),%eax
 804c12a:	89 45 f0             	mov    %eax,-0x10(%ebp)
 804c12d:	dd 45 d0             	fldl   -0x30(%ebp)
 804c130:	dd 05 e0 eb 04 08    	fldl   0x804ebe0
 804c136:	de f9                	fdivrp %st,%st(1)
 804c138:	dd 45 d0             	fldl   -0x30(%ebp)
 804c13b:	dd 05 e0 eb 04 08    	fldl   0x804ebe0
 804c141:	de f9                	fdivrp %st,%st(1)
 804c143:	dd 45 d0             	fldl   -0x30(%ebp)
 804c146:	dd 05 e0 eb 04 08    	fldl   0x804ebe0
 804c14c:	de f9                	fdivrp %st,%st(1)
 804c14e:	d9 ca                	fxch   %st(2)
 804c150:	dd 5c 24 14          	fstpl  0x14(%esp)
 804c154:	dd 5c 24 0c          	fstpl  0xc(%esp)
 804c158:	dd 5c 24 04          	fstpl  0x4(%esp)
 804c15c:	8b 45 f0             	mov    -0x10(%ebp),%eax
 804c15f:	89 04 24             	mov    %eax,(%esp)
 804c162:	e8 99 e1 ff ff       	call   804a300 <matrix_addpoint_fromcoords>
 804c167:	dd 45 d0             	fldl   -0x30(%ebp)
 804c16a:	dd 05 e8 eb 04 08    	fldl   0x804ebe8
 804c170:	de f9                	fdivrp %st,%st(1)
 804c172:	dd 45 d0             	fldl   -0x30(%ebp)
 804c175:	dd 05 e0 eb 04 08    	fldl   0x804ebe0
 804c17b:	de f9                	fdivrp %st,%st(1)
 804c17d:	dd 45 d0             	fldl   -0x30(%ebp)
 804c180:	dd 05 e0 eb 04 08    	fldl   0x804ebe0
 804c186:	de f9                	fdivrp %st,%st(1)
 804c188:	d9 ca                	fxch   %st(2)
 804c18a:	dd 5c 24 14          	fstpl  0x14(%esp)
 804c18e:	dd 5c 24 0c          	fstpl  0xc(%esp)
 804c192:	dd 5c 24 04          	fstpl  0x4(%esp)
 804c196:	8b 45 f0             	mov    -0x10(%ebp),%eax
 804c199:	89 04 24             	mov    %eax,(%esp)
 804c19c:	e8 5f e1 ff ff       	call   804a300 <matrix_addpoint_fromcoords>
 804c1a1:	dd 45 d0             	fldl   -0x30(%ebp)
 804c1a4:	dd 05 e0 eb 04 08    	fldl   0x804ebe0
 804c1aa:	de f9                	fdivrp %st,%st(1)
 804c1ac:	dd 45 d0             	fldl   -0x30(%ebp)
 804c1af:	dd 05 e8 eb 04 08    	fldl   0x804ebe8
 804c1b5:	de f9                	fdivrp %st,%st(1)
 804c1b7:	dd 45 d0             	fldl   -0x30(%ebp)
 804c1ba:	dd 05 e0 eb 04 08    	fldl   0x804ebe0
 804c1c0:	de f9                	fdivrp %st,%st(1)
 804c1c2:	d9 ca                	fxch   %st(2)
 804c1c4:	dd 5c 24 14          	fstpl  0x14(%esp)
 804c1c8:	dd 5c 24 0c          	fstpl  0xc(%esp)
 804c1cc:	dd 5c 24 04          	fstpl  0x4(%esp)
 804c1d0:	8b 45 f0             	mov    -0x10(%ebp),%eax
 804c1d3:	89 04 24             	mov    %eax,(%esp)
 804c1d6:	e8 25 e1 ff ff       	call   804a300 <matrix_addpoint_fromcoords>
 804c1db:	dd 45 d0             	fldl   -0x30(%ebp)
 804c1de:	dd 05 e8 eb 04 08    	fldl   0x804ebe8
 804c1e4:	de f9                	fdivrp %st,%st(1)
 804c1e6:	dd 45 d0             	fldl   -0x30(%ebp)
 804c1e9:	dd 05 e8 eb 04 08    	fldl   0x804ebe8
 804c1ef:	de f9                	fdivrp %st,%st(1)
 804c1f1:	dd 45 d0             	fldl   -0x30(%ebp)
 804c1f4:	dd 05 e0 eb 04 08    	fldl   0x804ebe0
 804c1fa:	de f9                	fdivrp %st,%st(1)
 804c1fc:	d9 ca                	fxch   %st(2)
 804c1fe:	dd 5c 24 14          	fstpl  0x14(%esp)
 804c202:	dd 5c 24 0c          	fstpl  0xc(%esp)
 804c206:	dd 5c 24 04          	fstpl  0x4(%esp)
 804c20a:	8b 45 f0             	mov    -0x10(%ebp),%eax
 804c20d:	89 04 24             	mov    %eax,(%esp)
 804c210:	e8 eb e0 ff ff       	call   804a300 <matrix_addpoint_fromcoords>
 804c215:	dd 45 d0             	fldl   -0x30(%ebp)
 804c218:	dd 05 e0 eb 04 08    	fldl   0x804ebe0
 804c21e:	de f9                	fdivrp %st,%st(1)
 804c220:	dd 45 d0             	fldl   -0x30(%ebp)
 804c223:	dd 05 e0 eb 04 08    	fldl   0x804ebe0
 804c229:	de f9                	fdivrp %st,%st(1)
 804c22b:	dd 45 d0             	fldl   -0x30(%ebp)
 804c22e:	dd 05 e8 eb 04 08    	fldl   0x804ebe8
 804c234:	de f9                	fdivrp %st,%st(1)
 804c236:	d9 ca                	fxch   %st(2)
 804c238:	dd 5c 24 14          	fstpl  0x14(%esp)
 804c23c:	dd 5c 24 0c          	fstpl  0xc(%esp)
 804c240:	dd 5c 24 04          	fstpl  0x4(%esp)
 804c244:	8b 45 f0             	mov    -0x10(%ebp),%eax
 804c247:	89 04 24             	mov    %eax,(%esp)
 804c24a:	e8 b1 e0 ff ff       	call   804a300 <matrix_addpoint_fromcoords>
 804c24f:	dd 45 d0             	fldl   -0x30(%ebp)
 804c252:	dd 05 e8 eb 04 08    	fldl   0x804ebe8
 804c258:	de f9                	fdivrp %st,%st(1)
 804c25a:	dd 45 d0             	fldl   -0x30(%ebp)
 804c25d:	dd 05 e0 eb 04 08    	fldl   0x804ebe0
 804c263:	de f9                	fdivrp %st,%st(1)
 804c265:	dd 45 d0             	fldl   -0x30(%ebp)
 804c268:	dd 05 e8 eb 04 08    	fldl   0x804ebe8
 804c26e:	de f9                	fdivrp %st,%st(1)
 804c270:	d9 ca                	fxch   %st(2)
 804c272:	dd 5c 24 14          	fstpl  0x14(%esp)
 804c276:	dd 5c 24 0c          	fstpl  0xc(%esp)
 804c27a:	dd 5c 24 04          	fstpl  0x4(%esp)
 804c27e:	8b 45 f0             	mov    -0x10(%ebp),%eax
 804c281:	89 04 24             	mov    %eax,(%esp)
 804c284:	e8 77 e0 ff ff       	call   804a300 <matrix_addpoint_fromcoords>
 804c289:	dd 45 d0             	fldl   -0x30(%ebp)
 804c28c:	dd 05 e0 eb 04 08    	fldl   0x804ebe0
 804c292:	de f9                	fdivrp %st,%st(1)
 804c294:	dd 45 d0             	fldl   -0x30(%ebp)
 804c297:	dd 05 e8 eb 04 08    	fldl   0x804ebe8
 804c29d:	de f9                	fdivrp %st,%st(1)
 804c29f:	dd 45 d0             	fldl   -0x30(%ebp)
 804c2a2:	dd 05 e8 eb 04 08    	fldl   0x804ebe8
 804c2a8:	de f9                	fdivrp %st,%st(1)
 804c2aa:	d9 ca                	fxch   %st(2)
 804c2ac:	dd 5c 24 14          	fstpl  0x14(%esp)
 804c2b0:	dd 5c 24 0c          	fstpl  0xc(%esp)
 804c2b4:	dd 5c 24 04          	fstpl  0x4(%esp)
 804c2b8:	8b 45 f0             	mov    -0x10(%ebp),%eax
 804c2bb:	89 04 24             	mov    %eax,(%esp)
 804c2be:	e8 3d e0 ff ff       	call   804a300 <matrix_addpoint_fromcoords>
 804c2c3:	dd 45 d0             	fldl   -0x30(%ebp)
 804c2c6:	dd 05 e8 eb 04 08    	fldl   0x804ebe8
 804c2cc:	de f9                	fdivrp %st,%st(1)
 804c2ce:	dd 45 d0             	fldl   -0x30(%ebp)
 804c2d1:	dd 05 e8 eb 04 08    	fldl   0x804ebe8
 804c2d7:	de f9                	fdivrp %st,%st(1)
 804c2d9:	dd 45 d0             	fldl   -0x30(%ebp)
 804c2dc:	dd 05 e8 eb 04 08    	fldl   0x804ebe8
 804c2e2:	de f9                	fdivrp %st,%st(1)
 804c2e4:	d9 ca                	fxch   %st(2)
 804c2e6:	dd 5c 24 14          	fstpl  0x14(%esp)
 804c2ea:	dd 5c 24 0c          	fstpl  0xc(%esp)
 804c2ee:	dd 5c 24 04          	fstpl  0x4(%esp)
 804c2f2:	8b 45 f0             	mov    -0x10(%ebp),%eax
 804c2f5:	89 04 24             	mov    %eax,(%esp)
 804c2f8:	e8 03 e0 ff ff       	call   804a300 <matrix_addpoint_fromcoords>
 804c2fd:	8b 45 f4             	mov    -0xc(%ebp),%eax
 804c300:	8b 40 04             	mov    0x4(%eax),%eax
 804c303:	c7 44 24 08 01 00 00 	movl   $0x1,0x8(%esp)
 804c30a:	00 
 804c30b:	c7 44 24 04 00 00 00 	movl   $0x0,0x4(%esp)
 804c312:	00 
 804c313:	89 04 24             	mov    %eax,(%esp)
 804c316:	e8 2a 0a 00 00       	call   804cd45 <object_add_edge>
 804c31b:	8b 45 f4             	mov    -0xc(%ebp),%eax
 804c31e:	8b 40 04             	mov    0x4(%eax),%eax
 804c321:	c7 44 24 08 03 00 00 	movl   $0x3,0x8(%esp)
 804c328:	00 
 804c329:	c7 44 24 04 01 00 00 	movl   $0x1,0x4(%esp)
 804c330:	00 
 804c331:	89 04 24             	mov    %eax,(%esp)
 804c334:	e8 0c 0a 00 00       	call   804cd45 <object_add_edge>
 804c339:	8b 45 f4             	mov    -0xc(%ebp),%eax
 804c33c:	8b 40 04             	mov    0x4(%eax),%eax
 804c33f:	c7 44 24 08 02 00 00 	movl   $0x2,0x8(%esp)
 804c346:	00 
 804c347:	c7 44 24 04 03 00 00 	movl   $0x3,0x4(%esp)
 804c34e:	00 
 804c34f:	89 04 24             	mov    %eax,(%esp)
 804c352:	e8 ee 09 00 00       	call   804cd45 <object_add_edge>
 804c357:	8b 45 f4             	mov    -0xc(%ebp),%eax
 804c35a:	8b 40 04             	mov    0x4(%eax),%eax
 804c35d:	c7 44 24 08 00 00 00 	movl   $0x0,0x8(%esp)
 804c364:	00 
 804c365:	c7 44 24 04 02 00 00 	movl   $0x2,0x4(%esp)
 804c36c:	00 
 804c36d:	89 04 24             	mov    %eax,(%esp)
 804c370:	e8 d0 09 00 00       	call   804cd45 <object_add_edge>
 804c375:	8b 45 f4             	mov    -0xc(%ebp),%eax
 804c378:	8b 40 04             	mov    0x4(%eax),%eax
 804c37b:	c7 44 24 08 05 00 00 	movl   $0x5,0x8(%esp)
 804c382:	00 
 804c383:	c7 44 24 04 04 00 00 	movl   $0x4,0x4(%esp)
 804c38a:	00 
 804c38b:	89 04 24             	mov    %eax,(%esp)
 804c38e:	e8 b2 09 00 00       	call   804cd45 <object_add_edge>
 804c393:	8b 45 f4             	mov    -0xc(%ebp),%eax
 804c396:	8b 40 04             	mov    0x4(%eax),%eax
 804c399:	c7 44 24 08 07 00 00 	movl   $0x7,0x8(%esp)
 804c3a0:	00 
 804c3a1:	c7 44 24 04 05 00 00 	movl   $0x5,0x4(%esp)
 804c3a8:	00 
 804c3a9:	89 04 24             	mov    %eax,(%esp)
 804c3ac:	e8 94 09 00 00       	call   804cd45 <object_add_edge>
 804c3b1:	8b 45 f4             	mov    -0xc(%ebp),%eax
 804c3b4:	8b 40 04             	mov    0x4(%eax),%eax
 804c3b7:	c7 44 24 08 06 00 00 	movl   $0x6,0x8(%esp)
 804c3be:	00 
 804c3bf:	c7 44 24 04 07 00 00 	movl   $0x7,0x4(%esp)
 804c3c6:	00 
 804c3c7:	89 04 24             	mov    %eax,(%esp)
 804c3ca:	e8 76 09 00 00       	call   804cd45 <object_add_edge>
 804c3cf:	8b 45 f4             	mov    -0xc(%ebp),%eax
 804c3d2:	8b 40 04             	mov    0x4(%eax),%eax
 804c3d5:	c7 44 24 08 04 00 00 	movl   $0x4,0x8(%esp)
 804c3dc:	00 
 804c3dd:	c7 44 24 04 06 00 00 	movl   $0x6,0x4(%esp)
 804c3e4:	00 
 804c3e5:	89 04 24             	mov    %eax,(%esp)
 804c3e8:	e8 58 09 00 00       	call   804cd45 <object_add_edge>
 804c3ed:	8b 45 f4             	mov    -0xc(%ebp),%eax
 804c3f0:	8b 40 04             	mov    0x4(%eax),%eax
 804c3f3:	c7 44 24 08 04 00 00 	movl   $0x4,0x8(%esp)
 804c3fa:	00 
 804c3fb:	c7 44 24 04 00 00 00 	movl   $0x0,0x4(%esp)
 804c402:	00 
 804c403:	89 04 24             	mov    %eax,(%esp)
 804c406:	e8 3a 09 00 00       	call   804cd45 <object_add_edge>
 804c40b:	8b 45 f4             	mov    -0xc(%ebp),%eax
 804c40e:	8b 40 04             	mov    0x4(%eax),%eax
 804c411:	c7 44 24 08 05 00 00 	movl   $0x5,0x8(%esp)
 804c418:	00 
 804c419:	c7 44 24 04 01 00 00 	movl   $0x1,0x4(%esp)
 804c420:	00 
 804c421:	89 04 24             	mov    %eax,(%esp)
 804c424:	e8 1c 09 00 00       	call   804cd45 <object_add_edge>
 804c429:	8b 45 f4             	mov    -0xc(%ebp),%eax
 804c42c:	8b 40 04             	mov    0x4(%eax),%eax
 804c42f:	c7 44 24 08 06 00 00 	movl   $0x6,0x8(%esp)
 804c436:	00 
 804c437:	c7 44 24 04 02 00 00 	movl   $0x2,0x4(%esp)
 804c43e:	00 
 804c43f:	89 04 24             	mov    %eax,(%esp)
 804c442:	e8 fe 08 00 00       	call   804cd45 <object_add_edge>
 804c447:	8b 45 f4             	mov    -0xc(%ebp),%eax
 804c44a:	8b 40 04             	mov    0x4(%eax),%eax
 804c44d:	c7 44 24 08 07 00 00 	movl   $0x7,0x8(%esp)
 804c454:	00 
 804c455:	c7 44 24 04 03 00 00 	movl   $0x3,0x4(%esp)
 804c45c:	00 
 804c45d:	89 04 24             	mov    %eax,(%esp)
 804c460:	e8 e0 08 00 00       	call   804cd45 <object_add_edge>
 804c465:	8b 45 f4             	mov    -0xc(%ebp),%eax
 804c468:	8b 40 04             	mov    0x4(%eax),%eax
 804c46b:	8b 40 14             	mov    0x14(%eax),%eax
 804c46e:	89 45 e8             	mov    %eax,-0x18(%ebp)
 804c471:	c7 45 ec 00 00 00 00 	movl   $0x0,-0x14(%ebp)
 804c478:	eb 19                	jmp    804c493 <world_make_cube+0x3aa>
 804c47a:	8b 45 ec             	mov    -0x14(%ebp),%eax
 804c47d:	c1 e0 02             	shl    $0x2,%eax
 804c480:	03 45 e8             	add    -0x18(%ebp),%eax
 804c483:	c7 00 00 00 00 00    	movl   $0x0,(%eax)
 804c489:	c7 00 ff ff ff 00    	movl   $0xffffff,(%eax)
 804c48f:	83 45 ec 01          	addl   $0x1,-0x14(%ebp)
 804c493:	83 7d ec 07          	cmpl   $0x7,-0x14(%ebp)
 804c497:	7e e1                	jle    804c47a <world_make_cube+0x391>
 804c499:	8b 45 f4             	mov    -0xc(%ebp),%eax
 804c49c:	8b 40 04             	mov    0x4(%eax),%eax
 804c49f:	8b 40 18             	mov    0x18(%eax),%eax
 804c4a2:	89 45 e4             	mov    %eax,-0x1c(%ebp)
 804c4a5:	c7 45 ec 00 00 00 00 	movl   $0x0,-0x14(%ebp)
 804c4ac:	eb 19                	jmp    804c4c7 <world_make_cube+0x3de>
 804c4ae:	8b 45 ec             	mov    -0x14(%ebp),%eax
 804c4b1:	c1 e0 02             	shl    $0x2,%eax
 804c4b4:	03 45 e4             	add    -0x1c(%ebp),%eax
 804c4b7:	c7 00 00 00 00 00    	movl   $0x0,(%eax)
 804c4bd:	c7 00 ff ff ff 00    	movl   $0xffffff,(%eax)
 804c4c3:	83 45 ec 01          	addl   $0x1,-0x14(%ebp)
 804c4c7:	83 7d ec 0b          	cmpl   $0xb,-0x14(%ebp)
 804c4cb:	7e e1                	jle    804c4ae <world_make_cube+0x3c5>
 804c4cd:	8b 45 f4             	mov    -0xc(%ebp),%eax
 804c4d0:	c9                   	leave  
 804c4d1:	c3                   	ret    
 804c4d2:	90                   	nop
 804c4d3:	90                   	nop

0804c4d4 <animation_init>:
 804c4d4:	55                   	push   %ebp
 804c4d5:	89 e5                	mov    %esp,%ebp
 804c4d7:	83 ec 18             	sub    $0x18,%esp
 804c4da:	c7 44 24 04 04 00 00 	movl   $0x4,0x4(%esp)
 804c4e1:	00 
 804c4e2:	c7 04 24 04 00 00 00 	movl   $0x4,(%esp)
 804c4e9:	e8 fa d0 ff ff       	call   80495e8 <matrix_new>
 804c4ee:	a3 78 06 05 08       	mov    %eax,0x8050678
 804c4f3:	c7 44 24 04 60 06 05 	movl   $0x8050660,0x4(%esp)
 804c4fa:	08 
 804c4fb:	c7 04 24 00 00 00 00 	movl   $0x0,(%esp)
 804c502:	e8 9d c6 ff ff       	call   8048ba4 <clock_gettime@plt>
 804c507:	d9 ee                	fldz   
 804c509:	dd 1d a0 06 05 08    	fstpl  0x80506a0
 804c50f:	c7 05 a8 06 05 08 00 	movl   $0x0,0x80506a8
 804c516:	00 00 00 
 804c519:	c9                   	leave  
 804c51a:	c3                   	ret    

0804c51b <animation_update_scene>:
 804c51b:	55                   	push   %ebp
 804c51c:	89 e5                	mov    %esp,%ebp
 804c51e:	83 ec 48             	sub    $0x48,%esp
 804c521:	c7 44 24 04 54 06 05 	movl   $0x8050654,0x4(%esp)
 804c528:	08 
 804c529:	c7 04 24 00 00 00 00 	movl   $0x0,(%esp)
 804c530:	e8 6f c6 ff ff       	call   8048ba4 <clock_gettime@plt>
 804c535:	8d 45 f0             	lea    -0x10(%ebp),%eax
 804c538:	c7 44 24 08 54 06 05 	movl   $0x8050654,0x8(%esp)
 804c53f:	08 
 804c540:	c7 44 24 04 60 06 05 	movl   $0x8050660,0x4(%esp)
 804c547:	08 
 804c548:	89 04 24             	mov    %eax,(%esp)
 804c54b:	e8 e8 01 00 00       	call   804c738 <diff>
 804c550:	83 ec 04             	sub    $0x4,%esp
 804c553:	8b 45 f0             	mov    -0x10(%ebp),%eax
 804c556:	89 45 e4             	mov    %eax,-0x1c(%ebp)
 804c559:	db 45 e4             	fildl  -0x1c(%ebp)
 804c55c:	8b 45 f4             	mov    -0xc(%ebp),%eax
 804c55f:	89 45 e4             	mov    %eax,-0x1c(%ebp)
 804c562:	db 45 e4             	fildl  -0x1c(%ebp)
 804c565:	dd 05 40 ec 04 08    	fldl   0x804ec40
 804c56b:	de f9                	fdivrp %st,%st(1)
 804c56d:	de c1                	faddp  %st,%st(1)
 804c56f:	dd 5d e8             	fstpl  -0x18(%ebp)
 804c572:	dd 05 a0 06 05 08    	fldl   0x80506a0
 804c578:	dc 45 e8             	faddl  -0x18(%ebp)
 804c57b:	dd 1d a0 06 05 08    	fstpl  0x80506a0
 804c581:	a1 a8 06 05 08       	mov    0x80506a8,%eax
 804c586:	83 c0 01             	add    $0x1,%eax
 804c589:	a3 a8 06 05 08       	mov    %eax,0x80506a8
 804c58e:	a1 38 06 05 08       	mov    0x8050638,%eax
 804c593:	85 c0                	test   %eax,%eax
 804c595:	75 12                	jne    804c5a9 <animation_update_scene+0x8e>
 804c597:	a1 34 06 05 08       	mov    0x8050634,%eax
 804c59c:	85 c0                	test   %eax,%eax
 804c59e:	74 56                	je     804c5f6 <animation_update_scene+0xdb>
 804c5a0:	a1 4c 06 05 08       	mov    0x805064c,%eax
 804c5a5:	85 c0                	test   %eax,%eax
 804c5a7:	74 4d                	je     804c5f6 <animation_update_scene+0xdb>
 804c5a9:	a1 a8 06 05 08       	mov    0x80506a8,%eax
 804c5ae:	89 45 e4             	mov    %eax,-0x1c(%ebp)
 804c5b1:	db 45 e4             	fildl  -0x1c(%ebp)
 804c5b4:	dd 05 a0 06 05 08    	fldl   0x80506a0
 804c5ba:	de f9                	fdivrp %st,%st(1)
 804c5bc:	ba f0 eb 04 08       	mov    $0x804ebf0,%edx
 804c5c1:	a1 c0 00 05 08       	mov    0x80500c0,%eax
 804c5c6:	dd 5c 24 18          	fstpl  0x18(%esp)
 804c5ca:	c7 44 24 14 20 00 00 	movl   $0x20,0x14(%esp)
 804c5d1:	00 
 804c5d2:	c7 44 24 10 28 ec 04 	movl   $0x804ec28,0x10(%esp)
 804c5d9:	08 
 804c5da:	c7 44 24 0c 10 ec 04 	movl   $0x804ec10,0xc(%esp)
 804c5e1:	08 
 804c5e2:	c7 44 24 08 20 ec 04 	movl   $0x804ec20,0x8(%esp)
 804c5e9:	08 
 804c5ea:	89 54 24 04          	mov    %edx,0x4(%esp)
 804c5ee:	89 04 24             	mov    %eax,(%esp)
 804c5f1:	e8 de c5 ff ff       	call   8048bd4 <fprintf@plt>
 804c5f6:	dd 45 e8             	fldl   -0x18(%ebp)
 804c5f9:	dd 5c 24 04          	fstpl  0x4(%esp)
 804c5fd:	8b 45 08             	mov    0x8(%ebp),%eax
 804c600:	89 04 24             	mov    %eax,(%esp)
 804c603:	e8 18 00 00 00       	call   804c620 <animation_update_subtree>
 804c608:	a1 54 06 05 08       	mov    0x8050654,%eax
 804c60d:	8b 15 58 06 05 08    	mov    0x8050658,%edx
 804c613:	a3 60 06 05 08       	mov    %eax,0x8050660
 804c618:	89 15 64 06 05 08    	mov    %edx,0x8050664
 804c61e:	c9                   	leave  
 804c61f:	c3                   	ret    

0804c620 <animation_update_subtree>:
 804c620:	55                   	push   %ebp
 804c621:	89 e5                	mov    %esp,%ebp
 804c623:	83 ec 38             	sub    $0x38,%esp
 804c626:	8b 45 0c             	mov    0xc(%ebp),%eax
 804c629:	89 45 e0             	mov    %eax,-0x20(%ebp)
 804c62c:	8b 45 10             	mov    0x10(%ebp),%eax
 804c62f:	89 45 e4             	mov    %eax,-0x1c(%ebp)
 804c632:	8b 45 08             	mov    0x8(%ebp),%eax
 804c635:	8b 00                	mov    (%eax),%eax
 804c637:	85 c0                	test   %eax,%eax
 804c639:	0f 85 c0 00 00 00    	jne    804c6ff <animation_update_subtree+0xdf>
 804c63f:	8b 45 08             	mov    0x8(%ebp),%eax
 804c642:	8b 40 18             	mov    0x18(%eax),%eax
 804c645:	8b 55 08             	mov    0x8(%ebp),%edx
 804c648:	8b 52 18             	mov    0x18(%edx),%edx
 804c64b:	dd 42 18             	fldl   0x18(%edx)
 804c64e:	8b 55 08             	mov    0x8(%ebp),%edx
 804c651:	8b 52 18             	mov    0x18(%edx),%edx
 804c654:	dd 42 30             	fldl   0x30(%edx)
 804c657:	dc 4d e0             	fmull  -0x20(%ebp)
 804c65a:	de c1                	faddp  %st,%st(1)
 804c65c:	dd 58 18             	fstpl  0x18(%eax)
 804c65f:	8b 45 08             	mov    0x8(%ebp),%eax
 804c662:	8b 40 18             	mov    0x18(%eax),%eax
 804c665:	8b 55 08             	mov    0x8(%ebp),%edx
 804c668:	8b 52 18             	mov    0x18(%edx),%edx
 804c66b:	dd 42 20             	fldl   0x20(%edx)
 804c66e:	8b 55 08             	mov    0x8(%ebp),%edx
 804c671:	8b 52 18             	mov    0x18(%edx),%edx
 804c674:	dd 42 38             	fldl   0x38(%edx)
 804c677:	dc 4d e0             	fmull  -0x20(%ebp)
 804c67a:	de c1                	faddp  %st,%st(1)
 804c67c:	dd 58 20             	fstpl  0x20(%eax)
 804c67f:	8b 45 08             	mov    0x8(%ebp),%eax
 804c682:	8b 40 18             	mov    0x18(%eax),%eax
 804c685:	8b 55 08             	mov    0x8(%ebp),%edx
 804c688:	8b 52 18             	mov    0x18(%edx),%edx
 804c68b:	dd 42 28             	fldl   0x28(%edx)
 804c68e:	8b 55 08             	mov    0x8(%ebp),%edx
 804c691:	8b 52 18             	mov    0x18(%edx),%edx
 804c694:	dd 42 40             	fldl   0x40(%edx)
 804c697:	dc 4d e0             	fmull  -0x20(%ebp)
 804c69a:	de c1                	faddp  %st,%st(1)
 804c69c:	dd 58 28             	fstpl  0x28(%eax)
 804c69f:	8b 45 08             	mov    0x8(%ebp),%eax
 804c6a2:	8b 40 18             	mov    0x18(%eax),%eax
 804c6a5:	8b 55 08             	mov    0x8(%ebp),%edx
 804c6a8:	8b 52 18             	mov    0x18(%edx),%edx
 804c6ab:	dd 42 48             	fldl   0x48(%edx)
 804c6ae:	8b 55 08             	mov    0x8(%ebp),%edx
 804c6b1:	8b 52 18             	mov    0x18(%edx),%edx
 804c6b4:	dd 42 60             	fldl   0x60(%edx)
 804c6b7:	dc 4d e0             	fmull  -0x20(%ebp)
 804c6ba:	de c1                	faddp  %st,%st(1)
 804c6bc:	dd 58 48             	fstpl  0x48(%eax)
 804c6bf:	8b 45 08             	mov    0x8(%ebp),%eax
 804c6c2:	8b 40 18             	mov    0x18(%eax),%eax
 804c6c5:	8b 55 08             	mov    0x8(%ebp),%edx
 804c6c8:	8b 52 18             	mov    0x18(%edx),%edx
 804c6cb:	dd 42 50             	fldl   0x50(%edx)
 804c6ce:	8b 55 08             	mov    0x8(%ebp),%edx
 804c6d1:	8b 52 18             	mov    0x18(%edx),%edx
 804c6d4:	dd 42 68             	fldl   0x68(%edx)
 804c6d7:	dc 4d e0             	fmull  -0x20(%ebp)
 804c6da:	de c1                	faddp  %st,%st(1)
 804c6dc:	dd 58 50             	fstpl  0x50(%eax)
 804c6df:	8b 45 08             	mov    0x8(%ebp),%eax
 804c6e2:	8b 40 18             	mov    0x18(%eax),%eax
 804c6e5:	8b 55 08             	mov    0x8(%ebp),%edx
 804c6e8:	8b 52 18             	mov    0x18(%edx),%edx
 804c6eb:	dd 42 58             	fldl   0x58(%edx)
 804c6ee:	8b 55 08             	mov    0x8(%ebp),%edx
 804c6f1:	8b 52 18             	mov    0x18(%edx),%edx
 804c6f4:	dd 42 70             	fldl   0x70(%edx)
 804c6f7:	dc 4d e0             	fmull  -0x20(%ebp)
 804c6fa:	de c1                	faddp  %st,%st(1)
 804c6fc:	dd 58 58             	fstpl  0x58(%eax)
 804c6ff:	c7 45 f4 00 00 00 00 	movl   $0x0,-0xc(%ebp)
 804c706:	eb 23                	jmp    804c72b <animation_update_subtree+0x10b>
 804c708:	8b 45 08             	mov    0x8(%ebp),%eax
 804c70b:	8b 40 0c             	mov    0xc(%eax),%eax
 804c70e:	8b 55 f4             	mov    -0xc(%ebp),%edx
 804c711:	c1 e2 02             	shl    $0x2,%edx
 804c714:	01 d0                	add    %edx,%eax
 804c716:	8b 00                	mov    (%eax),%eax
 804c718:	dd 45 e0             	fldl   -0x20(%ebp)
 804c71b:	dd 5c 24 04          	fstpl  0x4(%esp)
 804c71f:	89 04 24             	mov    %eax,(%esp)
 804c722:	e8 f9 fe ff ff       	call   804c620 <animation_update_subtree>
 804c727:	83 45 f4 01          	addl   $0x1,-0xc(%ebp)
 804c72b:	8b 45 08             	mov    0x8(%ebp),%eax
 804c72e:	8b 40 10             	mov    0x10(%eax),%eax
 804c731:	3b 45 f4             	cmp    -0xc(%ebp),%eax
 804c734:	7f d2                	jg     804c708 <animation_update_subtree+0xe8>
 804c736:	c9                   	leave  
 804c737:	c3                   	ret    

0804c738 <diff>:
 804c738:	55                   	push   %ebp
 804c739:	89 e5                	mov    %esp,%ebp
 804c73b:	53                   	push   %ebx
 804c73c:	83 ec 10             	sub    $0x10,%esp
 804c73f:	8b 4d 08             	mov    0x8(%ebp),%ecx
 804c742:	8b 45 10             	mov    0x10(%ebp),%eax
 804c745:	8b 50 04             	mov    0x4(%eax),%edx
 804c748:	8b 45 0c             	mov    0xc(%ebp),%eax
 804c74b:	8b 40 04             	mov    0x4(%eax),%eax
 804c74e:	39 c2                	cmp    %eax,%edx
 804c750:	7d 33                	jge    804c785 <diff+0x4d>
 804c752:	8b 45 10             	mov    0x10(%ebp),%eax
 804c755:	8b 10                	mov    (%eax),%edx
 804c757:	8b 45 0c             	mov    0xc(%ebp),%eax
 804c75a:	8b 00                	mov    (%eax),%eax
 804c75c:	89 d3                	mov    %edx,%ebx
 804c75e:	29 c3                	sub    %eax,%ebx
 804c760:	89 d8                	mov    %ebx,%eax
 804c762:	83 e8 01             	sub    $0x1,%eax
 804c765:	89 45 f4             	mov    %eax,-0xc(%ebp)
 804c768:	8b 45 10             	mov    0x10(%ebp),%eax
 804c76b:	8b 40 04             	mov    0x4(%eax),%eax
 804c76e:	8d 90 00 ca 9a 3b    	lea    0x3b9aca00(%eax),%edx
 804c774:	8b 45 0c             	mov    0xc(%ebp),%eax
 804c777:	8b 40 04             	mov    0x4(%eax),%eax
 804c77a:	89 d3                	mov    %edx,%ebx
 804c77c:	29 c3                	sub    %eax,%ebx
 804c77e:	89 d8                	mov    %ebx,%eax
 804c780:	89 45 f8             	mov    %eax,-0x8(%ebp)
 804c783:	eb 28                	jmp    804c7ad <diff+0x75>
 804c785:	8b 45 10             	mov    0x10(%ebp),%eax
 804c788:	8b 10                	mov    (%eax),%edx
 804c78a:	8b 45 0c             	mov    0xc(%ebp),%eax
 804c78d:	8b 00                	mov    (%eax),%eax
 804c78f:	89 d3                	mov    %edx,%ebx
 804c791:	29 c3                	sub    %eax,%ebx
 804c793:	89 d8                	mov    %ebx,%eax
 804c795:	89 45 f4             	mov    %eax,-0xc(%ebp)
 804c798:	8b 45 10             	mov    0x10(%ebp),%eax
 804c79b:	8b 50 04             	mov    0x4(%eax),%edx
 804c79e:	8b 45 0c             	mov    0xc(%ebp),%eax
 804c7a1:	8b 40 04             	mov    0x4(%eax),%eax
 804c7a4:	89 d3                	mov    %edx,%ebx
 804c7a6:	29 c3                	sub    %eax,%ebx
 804c7a8:	89 d8                	mov    %ebx,%eax
 804c7aa:	89 45 f8             	mov    %eax,-0x8(%ebp)
 804c7ad:	8b 45 f4             	mov    -0xc(%ebp),%eax
 804c7b0:	8b 55 f8             	mov    -0x8(%ebp),%edx
 804c7b3:	89 01                	mov    %eax,(%ecx)
 804c7b5:	89 51 04             	mov    %edx,0x4(%ecx)
 804c7b8:	89 c8                	mov    %ecx,%eax
 804c7ba:	83 c4 10             	add    $0x10,%esp
 804c7bd:	5b                   	pop    %ebx
 804c7be:	5d                   	pop    %ebp
 804c7bf:	c2 04 00             	ret    $0x4
 804c7c2:	90                   	nop
 804c7c3:	90                   	nop

0804c7c4 <scene_add_node>:
 804c7c4:	55                   	push   %ebp
 804c7c5:	89 e5                	mov    %esp,%ebp
 804c7c7:	83 ec 38             	sub    $0x38,%esp
 804c7ca:	83 7d 08 00          	cmpl   $0x0,0x8(%ebp)
 804c7ce:	0f 84 a3 00 00 00    	je     804c877 <scene_add_node+0xb3>
 804c7d4:	8b 45 08             	mov    0x8(%ebp),%eax
 804c7d7:	8b 50 10             	mov    0x10(%eax),%edx
 804c7da:	8b 45 08             	mov    0x8(%ebp),%eax
 804c7dd:	8b 40 14             	mov    0x14(%eax),%eax
 804c7e0:	39 c2                	cmp    %eax,%edx
 804c7e2:	0f 8c 8f 00 00 00    	jl     804c877 <scene_add_node+0xb3>
 804c7e8:	eb 0f                	jmp    804c7f9 <scene_add_node+0x35>
 804c7ea:	8b 45 08             	mov    0x8(%ebp),%eax
 804c7ed:	8b 40 14             	mov    0x14(%eax),%eax
 804c7f0:	8d 50 01             	lea    0x1(%eax),%edx
 804c7f3:	8b 45 08             	mov    0x8(%ebp),%eax
 804c7f6:	89 50 14             	mov    %edx,0x14(%eax)
 804c7f9:	8b 45 08             	mov    0x8(%ebp),%eax
 804c7fc:	8b 50 10             	mov    0x10(%eax),%edx
 804c7ff:	8b 45 08             	mov    0x8(%ebp),%eax
 804c802:	8b 40 14             	mov    0x14(%eax),%eax
 804c805:	39 c2                	cmp    %eax,%edx
 804c807:	7d e1                	jge    804c7ea <scene_add_node+0x26>
 804c809:	8b 45 08             	mov    0x8(%ebp),%eax
 804c80c:	8b 40 14             	mov    0x14(%eax),%eax
 804c80f:	89 c2                	mov    %eax,%edx
 804c811:	8b 45 08             	mov    0x8(%ebp),%eax
 804c814:	8b 40 0c             	mov    0xc(%eax),%eax
 804c817:	89 54 24 04          	mov    %edx,0x4(%esp)
 804c81b:	89 04 24             	mov    %eax,(%esp)
 804c81e:	e8 31 c2 ff ff       	call   8048a54 <realloc@plt>
 804c823:	89 45 f4             	mov    %eax,-0xc(%ebp)
 804c826:	83 7d f4 00          	cmpl   $0x0,-0xc(%ebp)
 804c82a:	75 42                	jne    804c86e <scene_add_node+0xaa>
 804c82c:	ba 48 ec 04 08       	mov    $0x804ec48,%edx
 804c831:	a1 c0 00 05 08       	mov    0x80500c0,%eax
 804c836:	c7 44 24 14 15 00 00 	movl   $0x15,0x14(%esp)
 804c83d:	00 
 804c83e:	c7 44 24 10 9c ec 04 	movl   $0x804ec9c,0x10(%esp)
 804c845:	08 
 804c846:	c7 44 24 0c 68 ec 04 	movl   $0x804ec68,0xc(%esp)
 804c84d:	08 
 804c84e:	c7 44 24 08 74 ec 04 	movl   $0x804ec74,0x8(%esp)
 804c855:	08 
 804c856:	89 54 24 04          	mov    %edx,0x4(%esp)
 804c85a:	89 04 24             	mov    %eax,(%esp)
 804c85d:	e8 72 c3 ff ff       	call   8048bd4 <fprintf@plt>
 804c862:	c7 04 24 0b 00 00 00 	movl   $0xb,(%esp)
 804c869:	e8 16 c3 ff ff       	call   8048b84 <raise@plt>
 804c86e:	8b 55 f4             	mov    -0xc(%ebp),%edx
 804c871:	8b 45 08             	mov    0x8(%ebp),%eax
 804c874:	89 50 0c             	mov    %edx,0xc(%eax)
 804c877:	c7 04 24 1c 00 00 00 	movl   $0x1c,(%esp)
 804c87e:	e8 61 c3 ff ff       	call   8048be4 <malloc@plt>
 804c883:	89 45 f0             	mov    %eax,-0x10(%ebp)
 804c886:	8b 45 f0             	mov    -0x10(%ebp),%eax
 804c889:	8b 55 08             	mov    0x8(%ebp),%edx
 804c88c:	89 50 04             	mov    %edx,0x4(%eax)
 804c88f:	83 7d 08 00          	cmpl   $0x0,0x8(%ebp)
 804c893:	74 31                	je     804c8c6 <scene_add_node+0x102>
 804c895:	8b 45 08             	mov    0x8(%ebp),%eax
 804c898:	8b 50 10             	mov    0x10(%eax),%edx
 804c89b:	8b 45 f0             	mov    -0x10(%ebp),%eax
 804c89e:	89 50 08             	mov    %edx,0x8(%eax)
 804c8a1:	8b 45 08             	mov    0x8(%ebp),%eax
 804c8a4:	8b 50 0c             	mov    0xc(%eax),%edx
 804c8a7:	8b 45 08             	mov    0x8(%ebp),%eax
 804c8aa:	8b 40 10             	mov    0x10(%eax),%eax
 804c8ad:	c1 e0 02             	shl    $0x2,%eax
 804c8b0:	01 c2                	add    %eax,%edx
 804c8b2:	8b 45 f0             	mov    -0x10(%ebp),%eax
 804c8b5:	89 02                	mov    %eax,(%edx)
 804c8b7:	8b 45 08             	mov    0x8(%ebp),%eax
 804c8ba:	8b 40 10             	mov    0x10(%eax),%eax
 804c8bd:	8d 50 01             	lea    0x1(%eax),%edx
 804c8c0:	8b 45 08             	mov    0x8(%ebp),%eax
 804c8c3:	89 50 10             	mov    %edx,0x10(%eax)
 804c8c6:	8b 45 0c             	mov    0xc(%ebp),%eax
 804c8c9:	c1 e0 02             	shl    $0x2,%eax
 804c8cc:	89 04 24             	mov    %eax,(%esp)
 804c8cf:	e8 10 c3 ff ff       	call   8048be4 <malloc@plt>
 804c8d4:	89 c2                	mov    %eax,%edx
 804c8d6:	8b 45 f0             	mov    -0x10(%ebp),%eax
 804c8d9:	89 50 0c             	mov    %edx,0xc(%eax)
 804c8dc:	8b 45 f0             	mov    -0x10(%ebp),%eax
 804c8df:	c7 40 10 00 00 00 00 	movl   $0x0,0x10(%eax)
 804c8e6:	8b 45 f0             	mov    -0x10(%ebp),%eax
 804c8e9:	8b 55 0c             	mov    0xc(%ebp),%edx
 804c8ec:	89 50 14             	mov    %edx,0x14(%eax)
 804c8ef:	8b 45 f0             	mov    -0x10(%ebp),%eax
 804c8f2:	c9                   	leave  
 804c8f3:	c3                   	ret    

0804c8f4 <scene_add_tform>:
 804c8f4:	55                   	push   %ebp
 804c8f5:	89 e5                	mov    %esp,%ebp
 804c8f7:	83 ec 28             	sub    $0x28,%esp
 804c8fa:	8b 45 10             	mov    0x10(%ebp),%eax
 804c8fd:	89 44 24 04          	mov    %eax,0x4(%esp)
 804c901:	8b 45 0c             	mov    0xc(%ebp),%eax
 804c904:	89 04 24             	mov    %eax,(%esp)
 804c907:	e8 b8 fe ff ff       	call   804c7c4 <scene_add_node>
 804c90c:	89 45 f4             	mov    %eax,-0xc(%ebp)
 804c90f:	83 7d f4 00          	cmpl   $0x0,-0xc(%ebp)
 804c913:	75 07                	jne    804c91c <scene_add_tform+0x28>
 804c915:	b8 00 00 00 00       	mov    $0x0,%eax
 804c91a:	eb 15                	jmp    804c931 <scene_add_tform+0x3d>
 804c91c:	8b 45 f4             	mov    -0xc(%ebp),%eax
 804c91f:	c7 00 00 00 00 00    	movl   $0x0,(%eax)
 804c925:	8b 45 f4             	mov    -0xc(%ebp),%eax
 804c928:	8b 55 08             	mov    0x8(%ebp),%edx
 804c92b:	89 50 18             	mov    %edx,0x18(%eax)
 804c92e:	8b 45 f4             	mov    -0xc(%ebp),%eax
 804c931:	c9                   	leave  
 804c932:	c3                   	ret    

0804c933 <scene_add_obj>:
 804c933:	55                   	push   %ebp
 804c934:	89 e5                	mov    %esp,%ebp
 804c936:	83 ec 28             	sub    $0x28,%esp
 804c939:	8b 45 10             	mov    0x10(%ebp),%eax
 804c93c:	89 44 24 04          	mov    %eax,0x4(%esp)
 804c940:	8b 45 0c             	mov    0xc(%ebp),%eax
 804c943:	89 04 24             	mov    %eax,(%esp)
 804c946:	e8 79 fe ff ff       	call   804c7c4 <scene_add_node>
 804c94b:	89 45 f4             	mov    %eax,-0xc(%ebp)
 804c94e:	83 7d f4 00          	cmpl   $0x0,-0xc(%ebp)
 804c952:	75 07                	jne    804c95b <scene_add_obj+0x28>
 804c954:	b8 00 00 00 00       	mov    $0x0,%eax
 804c959:	eb 15                	jmp    804c970 <scene_add_obj+0x3d>
 804c95b:	8b 45 f4             	mov    -0xc(%ebp),%eax
 804c95e:	c7 00 01 00 00 00    	movl   $0x1,(%eax)
 804c964:	8b 45 f4             	mov    -0xc(%ebp),%eax
 804c967:	8b 55 08             	mov    0x8(%ebp),%edx
 804c96a:	89 50 18             	mov    %edx,0x18(%eax)
 804c96d:	8b 45 f4             	mov    -0xc(%ebp),%eax
 804c970:	c9                   	leave  
 804c971:	c3                   	ret    

0804c972 <scene_print>:
 804c972:	55                   	push   %ebp
 804c973:	89 e5                	mov    %esp,%ebp
 804c975:	83 ec 18             	sub    $0x18,%esp
 804c978:	c7 44 24 04 00 00 00 	movl   $0x0,0x4(%esp)
 804c97f:	00 
 804c980:	8b 45 08             	mov    0x8(%ebp),%eax
 804c983:	89 04 24             	mov    %eax,(%esp)
 804c986:	e8 02 00 00 00       	call   804c98d <scene_print_helper>
 804c98b:	c9                   	leave  
 804c98c:	c3                   	ret    

0804c98d <scene_print_helper>:
 804c98d:	55                   	push   %ebp
 804c98e:	89 e5                	mov    %esp,%ebp
 804c990:	83 ec 28             	sub    $0x28,%esp
 804c993:	c7 45 f4 00 00 00 00 	movl   $0x0,-0xc(%ebp)
 804c99a:	eb 10                	jmp    804c9ac <scene_print_helper+0x1f>
 804c99c:	c7 04 24 20 00 00 00 	movl   $0x20,(%esp)
 804c9a3:	e8 cc c0 ff ff       	call   8048a74 <putchar@plt>
 804c9a8:	83 45 f4 01          	addl   $0x1,-0xc(%ebp)
 804c9ac:	8b 45 f4             	mov    -0xc(%ebp),%eax
 804c9af:	3b 45 0c             	cmp    0xc(%ebp),%eax
 804c9b2:	7c e8                	jl     804c99c <scene_print_helper+0xf>
 804c9b4:	8b 45 08             	mov    0x8(%ebp),%eax
 804c9b7:	8b 08                	mov    (%eax),%ecx
 804c9b9:	8b 45 08             	mov    0x8(%ebp),%eax
 804c9bc:	8b 50 08             	mov    0x8(%eax),%edx
 804c9bf:	b8 7c ec 04 08       	mov    $0x804ec7c,%eax
 804c9c4:	89 4c 24 0c          	mov    %ecx,0xc(%esp)
 804c9c8:	89 54 24 08          	mov    %edx,0x8(%esp)
 804c9cc:	8b 55 0c             	mov    0xc(%ebp),%edx
 804c9cf:	89 54 24 04          	mov    %edx,0x4(%esp)
 804c9d3:	89 04 24             	mov    %eax,(%esp)
 804c9d6:	e8 99 c1 ff ff       	call   8048b74 <printf@plt>
 804c9db:	c7 45 f4 00 00 00 00 	movl   $0x0,-0xc(%ebp)
 804c9e2:	eb 26                	jmp    804ca0a <scene_print_helper+0x7d>
 804c9e4:	8b 45 0c             	mov    0xc(%ebp),%eax
 804c9e7:	8d 50 01             	lea    0x1(%eax),%edx
 804c9ea:	8b 45 08             	mov    0x8(%ebp),%eax
 804c9ed:	8b 40 0c             	mov    0xc(%eax),%eax
 804c9f0:	8b 4d f4             	mov    -0xc(%ebp),%ecx
 804c9f3:	c1 e1 02             	shl    $0x2,%ecx
